

HI-TECH Software PIC LITE Macro Assembler V9.82 build 9453 
                                                                                               Sat Nov 22 18:59:47 2014

HI-TECH Software Omniscient Code Generator (Lite mode) build 9453
     1  0000                     opt subtitle "HI-TECH Software Omniscient Code Generator (Lite mode) build 9453"
     2                           
     3                           opt pagewidth 120
     4                           
     5                           	opt lm
     6                           
     7                           	processor	16F877A
     8                           clrc	macro
     9                           	bcf	3,0
    10  0000                     	endm
    11                           clrz	macro
    12                           	bcf	3,2
    13  0000                     	endm
    14                           setc	macro
    15                           	bsf	3,0
    16  0000                     	endm
    17                           setz	macro
    18                           	bsf	3,2
    19  0000                     	endm
    20                           skipc	macro
    21                           	btfss	3,0
    22  0000                     	endm
    23                           skipz	macro
    24                           	btfss	3,2
    25  0000                     	endm
    26                           skipnc	macro
    27                           	btfsc	3,0
    28  0000                     	endm
    29                           skipnz	macro
    30                           	btfsc	3,2
    31  0000                     	endm
    32  0000                     indf	equ	0
    33  0000                     indf0	equ	0
    34  0002                     pc	equ	2
    35  0002                     pcl	equ	2
    36  0003                     status	equ	3
    37  0004                     fsr	equ	4
    38  0004                     fsr0	equ	4
    39  0001                     c	equ	1
    40  0000                     z	equ	0
    41  000A                     pclath	equ	10
    42                           	FNCALL	_main,_Rs232Conf
    43                           	FNCALL	_main,_SPI_Config
    44                           	FNCALL	_main,_convert_temp
    45                           	FNCALL	_main,___ftge
    46                           	FNCALL	_main,___ftneg
    47                           	FNCALL	_main,___ftdiv
    48                           	FNCALL	_main,___fttol
    49                           	FNCALL	_main,___awtoft
    50                           	FNCALL	_main,___ftmul
    51                           	FNCALL	_main,___bmul
    52                           	FNCALL	_main,___lbtoft
    53                           	FNCALL	_main,___ftadd
    54                           	FNCALL	_main,_RS232Tx
    55                           	FNCALL	_convert_temp,___lwtoft
    56                           	FNCALL	_convert_temp,___ftmul
    57                           	FNCALL	_Rs232Conf,___lmul
    58                           	FNCALL	_Rs232Conf,___altoft
    59                           	FNCALL	_Rs232Conf,___lwtoft
    60                           	FNCALL	_Rs232Conf,___ftadd
    61                           	FNCALL	_Rs232Conf,___ftmul
    62                           	FNCALL	_Rs232Conf,___ftdiv
    63                           	FNCALL	_Rs232Conf,___fttol
    64                           	FNCALL	___altoft,___ftpack
    65                           	FNCALL	___lwtoft,___ftpack
    66                           	FNCALL	___awtoft,___ftpack
    67                           	FNCALL	___lbtoft,___ftpack
    68                           	FNCALL	___ftmul,___ftpack
    69                           	FNCALL	___ftdiv,___ftpack
    70                           	FNCALL	___ftadd,___ftpack
    71                           	FNROOT	_main
    72                           	FNCALL	intlevel1,_RSI
    73                           	global	intlevel1
    74                           	FNROOT	intlevel1
    75                           	global	main@F1128
    76                           psect	idataBANK1,class=CODE,space=0,delta=2
    77                           global __pidataBANK1
    78  0D8E                     __pidataBANK1:
    79                           	file	"C:\Users\Ricardo\Mestrado\TAC\trab10\p10.c"
    80                           	line	26
    81                           
    82                           ;initializer for main@F1128
    83  0D8E  3400               	retlw	0
    84  0D8F  3400               	retlw	0
    85  0D90  3400               	retlw	0
    86  0D91  3400               	retlw	0
    87  0D92  3400               	retlw	0
    88  0D93  3400               	retlw	0
    89  0D94  3420               	retlw	020h
    90                           	global	main@F1124
    91                           	global	_SSPBUF
    92  0013                     _SSPBUF	set	19
    93                           	global	_TXREG
    94  0019                     _TXREG	set	25
    95                           	global	_CARRY
    96  0018                     _CARRY	set	24
    97                           	global	_CKP
    98  00A4                     _CKP	set	164
    99                           	global	_CREN
   100  00C4                     _CREN	set	196
   101                           	global	_GIE
   102  005F                     _GIE	set	95
   103                           	global	_PEIE
   104  005E                     _PEIE	set	94
   105                           	global	_RB0
   106  0030                     _RB0	set	48
   107                           	global	_RB4
   108  0034                     _RB4	set	52
   109                           	global	_RCIF
   110  0065                     _RCIF	set	101
   111                           	global	_SPEN
   112  00C7                     _SPEN	set	199
   113                           	global	_SSPEN
   114  00A5                     _SSPEN	set	165
   115                           	global	_SSPM0
   116  00A0                     _SSPM0	set	160
   117                           	global	_SSPM1
   118  00A1                     _SSPM1	set	161
   119                           	global	_SSPM2
   120  00A2                     _SSPM2	set	162
   121                           	global	_SSPM3
   122  00A3                     _SSPM3	set	163
   123                           	global	_SPBRG
   124  0099                     _SPBRG	set	153
   125                           	global	_BF
   126  04A0                     _BF	set	1184
   127                           	global	_BRGH
   128  04C2                     _BRGH	set	1218
   129                           	global	_CKE
   130  04A6                     _CKE	set	1190
   131                           	global	_RCIE
   132  0465                     _RCIE	set	1125
   133                           	global	_SMP
   134  04A7                     _SMP	set	1191
   135                           	global	_SYNC
   136  04C4                     _SYNC	set	1220
   137                           	global	_TRISB0
   138  0430                     _TRISB0	set	1072
   139                           	global	_TRISB4
   140  0434                     _TRISB4	set	1076
   141                           	global	_TRISC3
   142  043B                     _TRISC3	set	1083
   143                           	global	_TRISC4
   144  043C                     _TRISC4	set	1084
   145                           	global	_TRISC5
   146  043D                     _TRISC5	set	1085
   147                           	global	_TRISC6
   148  043E                     _TRISC6	set	1086
   149                           	global	_TRISC7
   150  043F                     _TRISC7	set	1087
   151                           	global	_TXEN
   152  04C5                     _TXEN	set	1221
   153                           	global	_EEADR
   154  010D                     _EEADR	set	269
   155                           	global	_EEDATA
   156  010C                     _EEDATA	set	268
   157                           	global	_EECON1
   158  018C                     _EECON1	set	396
   159                           	global	_EECON2
   160  018D                     _EECON2	set	397
   161                           	global	_RD
   162  0C60                     _RD	set	3168
   163                           	global	_WR
   164  0C61                     _WR	set	3169
   165                           	global	_WREN
   166  0C62                     _WREN	set	3170
   167                           	global	_f
   168                           psect	nvBANK1,class=BANK1,space=1
   169                           global __pnvBANK1
   170  00BD                     __pnvBANK1:
   171  00BD                     _f:
   172  00BD                            ds      2
   173                           
   174                           	global	_RCREG
   175  001A                     _RCREG	set	26
   176                           	file	"p10.as"
   177                           	line	#
   178                           psect cinit,class=CODE,delta=2
   179                           global start_initialization
   180  0DC7                     start_initialization:
   181                           
   182                           psect	bssBANK1,class=BANK1,space=1
   183                           global __pbssBANK1
   184  00BF                     __pbssBANK1:
   185  00BF                     main@F1124:
   186  00BF                            ds      2
   187                           
   188                           psect	dataBANK1,class=BANK1,space=1
   189                           global __pdataBANK1
   190  00B6                     __pdataBANK1:
   191                           	file	"C:\Users\Ricardo\Mestrado\TAC\trab10\p10.c"
   192  00B6                     main@F1128:
   193  00B6                            ds      7
   194                           
   195                           ; Clear objects allocated to BANK1
   196                           psect cinit,class=CODE,delta=2
   197  0DC7  1683               	bsf	status, 5	;RP0=1, select bank1
   198  0DC8  1303               	bcf	status, 6	;RP1=0, select bank1
   199  0DC9  01BF               	clrf	((__pbssBANK1)+0)&07Fh
   200  0DCA  01C0               	clrf	((__pbssBANK1)+1)&07Fh
   201                           global btemp
   202                           psect inittext,class=CODE,delta=2
   203                           global init_fetch,btemp
   204                           ;	Called with low address in FSR and high address in W
   205  0DB4                     init_fetch:
   206  0DB4  087E               	movf btemp,w
   207  0DB5  008A               	movwf pclath
   208  0DB6  087F               	movf btemp+1,w
   209  0DB7  0082               	movwf pc
   210                           global init_ram
   211                           ;Called with:
   212                           ;	high address of idata address in btemp 
   213                           ;	low address of idata address in btemp+1 
   214                           ;	low address of data in FSR
   215                           ;	high address + 1 of data in btemp-1
   216  0DB8                     init_ram:
   217  0DB8  120A  158A  25B4   	fcall init_fetch
              120A  158A         
   218  0DBD  0080               	movwf indf,f
   219  0DBE  0A84               	incf fsr,f
   220  0DBF  0804               	movf fsr,w
   221  0DC0  067D               	xorwf btemp-1,w
   222  0DC1  1903               	btfsc status,2
   223  0DC2  3400               	retlw 0
   224  0DC3  0AFF               	incf btemp+1,f
   225  0DC4  1903               	btfsc status,2
   226  0DC5  0AFE               	incf btemp,f
   227  0DC6  2DB8               	goto init_ram
   228                           ; Initialize objects allocated to BANK1
   229                           psect cinit,class=CODE,delta=2
   230                           global init_ram, __pidataBANK1
   231  0DCB  1383               	bcf	status, 7	;select IRP bank0
   232  0DCC  30BD               	movlw low(__pdataBANK1+7)
   233  0DCD  00FD               	movwf btemp-1,f
   234  0DCE  300D               	movlw high(__pidataBANK1)
   235  0DCF  00FE               	movwf btemp,f
   236  0DD0  308E               	movlw low(__pidataBANK1)
   237  0DD1  00FF               	movwf btemp+1,f
   238  0DD2  30B6               	movlw low(__pdataBANK1)
   239  0DD3  0084               	movwf fsr,f
   240  0DD4  120A  158A  25B8   	fcall init_ram
              120A  158A         
   241                           psect cinit,class=CODE,delta=2
   242                           global end_of_initialization
   243                           
   244                           ;End of C runtime variable initialization code
   245                           
   246  0DD9                     end_of_initialization:
   247  0DD9  0183               clrf status
   248  0DDA  120A  118A  2815   ljmp _main	;jump to C main() function
   249                           psect	cstackBANK1,class=BANK1,space=1
   250                           global __pcstackBANK1
   251  00A0                     __pcstackBANK1:
   252                           	global	?_Rs232Conf
   253  00A0                     ?_Rs232Conf:	; 0 bytes @ 0x0
   254                           	global	Rs232Conf@m
   255  00A0                     Rs232Conf@m:	; 2 bytes @ 0x0
   256  00A0                     	ds	2
   257                           	global	Rs232Conf@fosc
   258  00A2                     Rs232Conf@fosc:	; 2 bytes @ 0x2
   259  00A2                     	ds	2
   260                           	global	??_main
   261  00A4                     ??_main:	; 0 bytes @ 0x4
   262  00A4                     	ds	4
   263                           	global	main@env
   264  00A8                     main@env:	; 7 bytes @ 0x8
   265  00A8                     	ds	7
   266                           	global	main@a
   267  00AF                     main@a:	; 2 bytes @ 0xF
   268  00AF                     	ds	2
   269                           	global	main@i
   270  00B1                     main@i:	; 2 bytes @ 0x11
   271  00B1                     	ds	2
   272                           	global	main@temperatura
   273  00B3                     main@temperatura:	; 3 bytes @ 0x13
   274  00B3                     	ds	3
   275                           psect	cstackCOMMON,class=COMMON,space=1
   276                           global __pcstackCOMMON
   277  0070                     __pcstackCOMMON:
   278                           	global	?_SPI_Config
   279  0070                     ?_SPI_Config:	; 0 bytes @ 0x0
   280                           	global	?_RSI
   281  0070                     ?_RSI:	; 0 bytes @ 0x0
   282                           	global	??_RSI
   283  0070                     ??_RSI:	; 0 bytes @ 0x0
   284                           	global	?_main
   285  0070                     ?_main:	; 0 bytes @ 0x0
   286  0070                     	ds	4
   287                           	global	??_SPI_Config
   288  0074                     ??_SPI_Config:	; 0 bytes @ 0x4
   289                           	global	?_RS232Tx
   290  0074                     ?_RS232Tx:	; 0 bytes @ 0x4
   291                           	global	??___lmul
   292  0074                     ??___lmul:	; 0 bytes @ 0x4
   293                           	global	?___ftge
   294  0074                     ?___ftge:	; 1 bit 
   295                           	global	?___ftpack
   296  0074                     ?___ftpack:	; 3 bytes @ 0x4
   297                           	global	RS232Tx@tam
   298  0074                     RS232Tx@tam:	; 1 bytes @ 0x4
   299                           	global	___ftge@ff1
   300  0074                     ___ftge@ff1:	; 3 bytes @ 0x4
   301                           	global	___ftpack@arg
   302  0074                     ___ftpack@arg:	; 3 bytes @ 0x4
   303  0074                     	ds	1
   304                           	global	??_RS232Tx
   305  0075                     ??_RS232Tx:	; 0 bytes @ 0x5
   306                           	global	___lmul@product
   307  0075                     ___lmul@product:	; 4 bytes @ 0x5
   308  0075                     	ds	1
   309                           	global	RS232Tx@s
   310  0076                     RS232Tx@s:	; 1 bytes @ 0x6
   311  0076                     	ds	1
   312                           	global	___ftpack@exp
   313  0077                     ___ftpack@exp:	; 1 bytes @ 0x7
   314                           	global	RS232Tx@m
   315  0077                     RS232Tx@m:	; 2 bytes @ 0x7
   316                           	global	___ftge@ff2
   317  0077                     ___ftge@ff2:	; 3 bytes @ 0x7
   318  0077                     	ds	1
   319                           	global	___ftpack@sign
   320  0078                     ___ftpack@sign:	; 1 bytes @ 0x8
   321  0078                     	ds	1
   322                           	global	??___ftneg
   323  0079                     ??___ftneg:	; 0 bytes @ 0x9
   324                           	global	??___lwtoft
   325  0079                     ??___lwtoft:	; 0 bytes @ 0x9
   326                           	global	?___bmul
   327  0079                     ?___bmul:	; 1 bytes @ 0x9
   328                           	global	RS232Tx@k
   329  0079                     RS232Tx@k:	; 1 bytes @ 0x9
   330                           	global	___bmul@multiplicand
   331  0079                     ___bmul@multiplicand:	; 1 bytes @ 0x9
   332                           	global	___lbtoft@c
   333  0079                     ___lbtoft@c:	; 1 bytes @ 0x9
   334                           	global	___awtoft@sign
   335  0079                     ___awtoft@sign:	; 1 bytes @ 0x9
   336  0079                     	ds	1
   337                           	global	??_Rs232Conf
   338  007A                     ??_Rs232Conf:	; 0 bytes @ 0xA
   339                           psect	cstackBANK0,class=BANK0,space=1
   340                           global __pcstackBANK0
   341  0020                     __pcstackBANK0:
   342                           	global	??___ftpack
   343  0020                     ??___ftpack:	; 0 bytes @ 0x0
   344                           	global	??___ftge
   345  0020                     ??___ftge:	; 0 bytes @ 0x0
   346                           	global	?___lmul
   347  0020                     ?___lmul:	; 4 bytes @ 0x0
   348                           	global	___lmul@multiplier
   349  0020                     ___lmul@multiplier:	; 4 bytes @ 0x0
   350  0020                     	ds	4
   351                           	global	___lmul@multiplicand
   352  0024                     ___lmul@multiplicand:	; 4 bytes @ 0x4
   353  0024                     	ds	4
   354                           	global	?___fttol
   355  0028                     ?___fttol:	; 4 bytes @ 0x8
   356                           	global	___fttol@f1
   357  0028                     ___fttol@f1:	; 3 bytes @ 0x8
   358  0028                     	ds	4
   359                           	global	??___fttol
   360  002C                     ??___fttol:	; 0 bytes @ 0xC
   361  002C                     	ds	4
   362                           	global	___fttol@sign1
   363  0030                     ___fttol@sign1:	; 1 bytes @ 0x10
   364  0030                     	ds	1
   365                           	global	___fttol@lval
   366  0031                     ___fttol@lval:	; 4 bytes @ 0x11
   367  0031                     	ds	4
   368                           	global	___fttol@exp1
   369  0035                     ___fttol@exp1:	; 1 bytes @ 0x15
   370  0035                     	ds	1
   371                           	global	??___bmul
   372  0036                     ??___bmul:	; 0 bytes @ 0x16
   373                           	global	?___awtoft
   374  0036                     ?___awtoft:	; 3 bytes @ 0x16
   375                           	global	?___ftneg
   376  0036                     ?___ftneg:	; 3 bytes @ 0x16
   377                           	global	?___lwtoft
   378  0036                     ?___lwtoft:	; 3 bytes @ 0x16
   379                           	global	?___altoft
   380  0036                     ?___altoft:	; 3 bytes @ 0x16
   381                           	global	___awtoft@c
   382  0036                     ___awtoft@c:	; 2 bytes @ 0x16
   383                           	global	___lwtoft@c
   384  0036                     ___lwtoft@c:	; 2 bytes @ 0x16
   385                           	global	___ftneg@f1
   386  0036                     ___ftneg@f1:	; 3 bytes @ 0x16
   387                           	global	___altoft@c
   388  0036                     ___altoft@c:	; 4 bytes @ 0x16
   389  0036                     	ds	1
   390                           	global	___bmul@product
   391  0037                     ___bmul@product:	; 1 bytes @ 0x17
   392  0037                     	ds	1
   393                           	global	___bmul@multiplier
   394  0038                     ___bmul@multiplier:	; 1 bytes @ 0x18
   395  0038                     	ds	1
   396                           	global	??___awtoft
   397  0039                     ??___awtoft:	; 0 bytes @ 0x19
   398                           	global	?___lbtoft
   399  0039                     ?___lbtoft:	; 3 bytes @ 0x19
   400  0039                     	ds	1
   401                           	global	??___altoft
   402  003A                     ??___altoft:	; 0 bytes @ 0x1A
   403  003A                     	ds	2
   404                           	global	??___lbtoft
   405  003C                     ??___lbtoft:	; 0 bytes @ 0x1C
   406                           	global	___altoft@exp
   407  003C                     ___altoft@exp:	; 1 bytes @ 0x1C
   408  003C                     	ds	1
   409                           	global	___altoft@sign
   410  003D                     ___altoft@sign:	; 1 bytes @ 0x1D
   411  003D                     	ds	3
   412                           	global	?___ftadd
   413  0040                     ?___ftadd:	; 3 bytes @ 0x20
   414                           	global	___ftadd@f1
   415  0040                     ___ftadd@f1:	; 3 bytes @ 0x20
   416  0040                     	ds	3
   417                           	global	___ftadd@f2
   418  0043                     ___ftadd@f2:	; 3 bytes @ 0x23
   419  0043                     	ds	3
   420                           	global	??___ftadd
   421  0046                     ??___ftadd:	; 0 bytes @ 0x26
   422  0046                     	ds	4
   423                           	global	___ftadd@sign
   424  004A                     ___ftadd@sign:	; 1 bytes @ 0x2A
   425  004A                     	ds	1
   426                           	global	___ftadd@exp2
   427  004B                     ___ftadd@exp2:	; 1 bytes @ 0x2B
   428  004B                     	ds	1
   429                           	global	___ftadd@exp1
   430  004C                     ___ftadd@exp1:	; 1 bytes @ 0x2C
   431  004C                     	ds	1
   432                           	global	?___ftmul
   433  004D                     ?___ftmul:	; 3 bytes @ 0x2D
   434                           	global	___ftmul@f1
   435  004D                     ___ftmul@f1:	; 3 bytes @ 0x2D
   436  004D                     	ds	3
   437                           	global	___ftmul@f2
   438  0050                     ___ftmul@f2:	; 3 bytes @ 0x30
   439  0050                     	ds	3
   440                           	global	??___ftmul
   441  0053                     ??___ftmul:	; 0 bytes @ 0x33
   442  0053                     	ds	4
   443                           	global	___ftmul@exp
   444  0057                     ___ftmul@exp:	; 1 bytes @ 0x37
   445  0057                     	ds	1
   446                           	global	___ftmul@f3_as_product
   447  0058                     ___ftmul@f3_as_product:	; 3 bytes @ 0x38
   448  0058                     	ds	3
   449                           	global	___ftmul@cntr
   450  005B                     ___ftmul@cntr:	; 1 bytes @ 0x3B
   451  005B                     	ds	1
   452                           	global	___ftmul@sign
   453  005C                     ___ftmul@sign:	; 1 bytes @ 0x3C
   454  005C                     	ds	1
   455                           	global	?_convert_temp
   456  005D                     ?_convert_temp:	; 3 bytes @ 0x3D
   457                           	global	?___ftdiv
   458  005D                     ?___ftdiv:	; 3 bytes @ 0x3D
   459                           	global	convert_temp@num
   460  005D                     convert_temp@num:	; 2 bytes @ 0x3D
   461                           	global	___ftdiv@f2
   462  005D                     ___ftdiv@f2:	; 3 bytes @ 0x3D
   463  005D                     	ds	3
   464                           	global	??_convert_temp
   465  0060                     ??_convert_temp:	; 0 bytes @ 0x40
   466                           	global	___ftdiv@f1
   467  0060                     ___ftdiv@f1:	; 3 bytes @ 0x40
   468  0060                     	ds	2
   469                           	global	convert_temp@tmp
   470  0062                     convert_temp@tmp:	; 2 bytes @ 0x42
   471  0062                     	ds	1
   472                           	global	??___ftdiv
   473  0063                     ??___ftdiv:	; 0 bytes @ 0x43
   474  0063                     	ds	1
   475                           	global	convert_temp@tmp_2
   476  0064                     convert_temp@tmp_2:	; 2 bytes @ 0x44
   477  0064                     	ds	2
   478                           	global	convert_temp@tmp_3
   479  0066                     convert_temp@tmp_3:	; 2 bytes @ 0x46
   480  0066                     	ds	1
   481                           	global	___ftdiv@cntr
   482  0067                     ___ftdiv@cntr:	; 1 bytes @ 0x47
   483  0067                     	ds	1
   484                           	global	convert_temp@temp
   485  0068                     convert_temp@temp:	; 3 bytes @ 0x48
   486                           	global	___ftdiv@f3
   487  0068                     ___ftdiv@f3:	; 3 bytes @ 0x48
   488  0068                     	ds	3
   489                           	global	___ftdiv@exp
   490  006B                     ___ftdiv@exp:	; 1 bytes @ 0x4B
   491                           	global	convert_temp@value
   492  006B                     convert_temp@value:	; 2 bytes @ 0x4B
   493  006B                     	ds	1
   494                           	global	___ftdiv@sign
   495  006C                     ___ftdiv@sign:	; 1 bytes @ 0x4C
   496  006C                     	ds	1
   497 ;;Data sizes: Strings 0, constant 0, data 7, bss 2, persistent 2 stack 0
   498 ;;Auto spaces:   Size  Autos    Used
   499 ;; COMMON          14     10      10
   500 ;; BANK0           80     77      77
   501 ;; BANK1           80     22      33
   502 ;; BANK3           96      0       0
   503 ;; BANK2           96      0       0
   504                           
   505 ;;
   506 ;; Pointer list with targets:
   507                           
   508 ;; ?___lbtoft	float  size(1) Largest target is 0
   509 ;;
   510 ;; ?___ftpack	float  size(1) Largest target is 0
   511 ;;
   512 ;; ?___lmul	unsigned long  size(1) Largest target is 0
   513 ;;
   514 ;; ?___altoft	float  size(1) Largest target is 0
   515 ;;
   516 ;; ?___lwtoft	float  size(1) Largest target is 0
   517 ;;
   518 ;; ?___ftadd	float  size(1) Largest target is 0
   519 ;;
   520 ;; ?___fttol	long  size(1) Largest target is 0
   521 ;;
   522 ;; ?___ftmul	float  size(1) Largest target is 0
   523 ;;
   524 ;; ?___awtoft	float  size(1) Largest target is 0
   525 ;;
   526 ;; ?___ftdiv	float  size(1) Largest target is 0
   527 ;;
   528 ;; ?___ftneg	float  size(1) Largest target is 0
   529 ;;
   530 ;; ?_convert_temp	float  size(1) Largest target is 0
   531 ;;
   532 ;; sp__RS232Rx	PTR unsigned char  size(1) Largest target is 1
   533 ;;		 -> RCREG(BITSFR0[1]), 
   534 ;;
   535 ;; RS232Tx@s	PTR unsigned char  size(1) Largest target is 7
   536 ;;		 -> main@env(BANK1[7]), 
   537 ;;
   538                           
   539                           
   540 ;;
   541 ;; Critical Paths under _main in COMMON
   542 ;;
   543 ;;   _main->___ftge
   544 ;;   _main->___awtoft
   545 ;;   _main->___bmul
   546 ;;   _main->___lbtoft
   547 ;;   _main->_RS232Tx
   548 ;;   _convert_temp->___lwtoft
   549 ;;   _Rs232Conf->___lwtoft
   550 ;;   ___altoft->___ftpack
   551 ;;   ___altoft->___lmul
   552 ;;   ___lwtoft->___ftpack
   553 ;;   ___awtoft->___ftpack
   554 ;;   ___lbtoft->___ftpack
   555 ;;   ___ftmul->___awtoft
   556 ;;   ___ftmul->___lbtoft
   557 ;;   ___ftmul->___lwtoft
   558 ;;   ___ftdiv->___bmul
   559 ;;   ___ftdiv->___lwtoft
   560 ;;   ___ftadd->___lbtoft
   561 ;;   ___ftadd->___lwtoft
   562 ;;   ___ftneg->___ftpack
   563 ;;   ___fttol->___ftpack
   564 ;;   ___fttol->___lmul
   565 ;;   ___bmul->___ftpack
   566 ;;
   567 ;; Critical Paths under _RSI in COMMON
   568 ;;
   569 ;;   None.
   570 ;;
   571 ;; Critical Paths under _main in BANK0
   572 ;;
   573 ;;   _main->_convert_temp
   574 ;;   _main->___ftdiv
   575 ;;   _convert_temp->___ftmul
   576 ;;   _Rs232Conf->___ftdiv
   577 ;;   ___altoft->___fttol
   578 ;;   ___lwtoft->___fttol
   579 ;;   ___awtoft->___fttol
   580 ;;   ___lbtoft->___ftneg
   581 ;;   ___ftmul->___ftadd
   582 ;;   ___ftdiv->___ftmul
   583 ;;   ___ftadd->___lbtoft
   584 ;;   ___ftneg->___fttol
   585 ;;   ___fttol->___lmul
   586 ;;   ___bmul->___fttol
   587 ;;
   588 ;; Critical Paths under _RSI in BANK0
   589 ;;
   590 ;;   None.
   591 ;;
   592 ;; Critical Paths under _main in BANK1
   593 ;;
   594 ;;   _main->_Rs232Conf
   595 ;;
   596 ;; Critical Paths under _RSI in BANK1
   597 ;;
   598 ;;   None.
   599 ;;
   600 ;; Critical Paths under _main in BANK3
   601 ;;
   602 ;;   None.
   603 ;;
   604 ;; Critical Paths under _RSI in BANK3
   605 ;;
   606 ;;   None.
   607 ;;
   608 ;; Critical Paths under _main in BANK2
   609 ;;
   610 ;;   None.
   611 ;;
   612 ;; Critical Paths under _RSI in BANK2
   613 ;;
   614 ;;   None.
   615                           
   616 ;;
   617 ;;Main: autosize = 0, tempsize = 4, incstack = 0, save=0
   618 ;;
   619                           
   620 ;;
   621 ;;Call Graph Tables:
   622 ;;
   623 ;; ---------------------------------------------------------------------------------
   624 ;; (Depth) Function   	        Calls       Base Space   Used Autos Params    Refs
   625 ;; ---------------------------------------------------------------------------------
   626 ;; (0) _main                                                18    18      0    7992
   627 ;;                                              4 BANK1     18    18      0
   628 ;;                          _Rs232Conf
   629 ;;                         _SPI_Config
   630 ;;                       _convert_temp
   631 ;;                             ___ftge
   632 ;;                            ___ftneg
   633 ;;                            ___ftdiv
   634 ;;                            ___fttol
   635 ;;                           ___awtoft
   636 ;;                            ___ftmul
   637 ;;                             ___bmul
   638 ;;                           ___lbtoft
   639 ;;                            ___ftadd
   640 ;;                            _RS232Tx
   641 ;; ---------------------------------------------------------------------------------
   642 ;; (1) _convert_temp                                        16    13      3    1063
   643 ;;                                             61 BANK0     16    13      3
   644 ;;                           ___lwtoft
   645 ;;                            ___ftmul
   646 ;; ---------------------------------------------------------------------------------
   647 ;; (1) _Rs232Conf                                            4     0      4    3061
   648 ;;                                              0 BANK1      4     0      4
   649 ;;                             ___lmul
   650 ;;                           ___altoft
   651 ;;                           ___lwtoft
   652 ;;                            ___ftadd
   653 ;;                            ___ftmul
   654 ;;                            ___ftdiv
   655 ;;                            ___fttol
   656 ;; ---------------------------------------------------------------------------------
   657 ;; (2) ___altoft                                             8     4      4     347
   658 ;;                                             22 BANK0      8     4      4
   659 ;;                           ___ftpack
   660 ;;                             ___lmul (ARG)
   661 ;;                            ___fttol (ARG)
   662 ;; ---------------------------------------------------------------------------------
   663 ;; (2) ___lwtoft                                             4     1      3     231
   664 ;;                                              9 COMMON     1     1      0
   665 ;;                                             22 BANK0      3     0      3
   666 ;;                           ___ftpack
   667 ;;                            ___fttol (ARG)
   668 ;; ---------------------------------------------------------------------------------
   669 ;; (1) ___awtoft                                             6     3      3     300
   670 ;;                                              9 COMMON     1     1      0
   671 ;;                                             22 BANK0      5     2      3
   672 ;;                           ___ftpack
   673 ;;                            ___fttol (ARG)
   674 ;; ---------------------------------------------------------------------------------
   675 ;; (1) ___lbtoft                                             8     5      3     231
   676 ;;                                              9 COMMON     1     1      0
   677 ;;                                             25 BANK0      7     4      3
   678 ;;                           ___ftpack
   679 ;;                            ___ftneg (ARG)
   680 ;;                            ___fttol (ARG)
   681 ;; ---------------------------------------------------------------------------------
   682 ;; (1) ___ftmul                                             16    10      6     535
   683 ;;                                             45 BANK0     16    10      6
   684 ;;                           ___ftpack
   685 ;;                           ___awtoft (ARG)
   686 ;;                            ___fttol (ARG)
   687 ;;                            ___ftadd (ARG)
   688 ;;                            ___ftneg (ARG)
   689 ;;                           ___lbtoft (ARG)
   690 ;;                           ___lwtoft (ARG)
   691 ;; ---------------------------------------------------------------------------------
   692 ;; (1) ___ftdiv                                             16    10      6     489
   693 ;;                                             61 BANK0     16    10      6
   694 ;;                           ___ftpack
   695 ;;                            ___fttol (ARG)
   696 ;;                             ___bmul (ARG)
   697 ;;                           ___altoft (ARG)
   698 ;;                             ___lmul (ARG)
   699 ;;                            ___ftmul (ARG)
   700 ;;                            ___ftadd (ARG)
   701 ;;                           ___lwtoft (ARG)
   702 ;; ---------------------------------------------------------------------------------
   703 ;; (1) ___ftadd                                             13     7      6    1049
   704 ;;                                             32 BANK0     13     7      6
   705 ;;                           ___ftpack
   706 ;;                            ___ftneg (ARG)
   707 ;;                           ___lbtoft (ARG)
   708 ;;                            ___fttol (ARG)
   709 ;;                           ___lwtoft (ARG)
   710 ;; ---------------------------------------------------------------------------------
   711 ;; (1) ___ftge                                              12     6      6     136
   712 ;;                                              4 COMMON     6     0      6
   713 ;;                                              0 BANK0      6     6      0
   714 ;; ---------------------------------------------------------------------------------
   715 ;; (1) ___ftneg                                              3     0      3      45
   716 ;;                                             22 BANK0      3     0      3
   717 ;;                           ___ftpack (ARG)
   718 ;;                            ___fttol (ARG)
   719 ;; ---------------------------------------------------------------------------------
   720 ;; (1) ___fttol                                             14    10      4     252
   721 ;;                                              8 BANK0     14    10      4
   722 ;;                           ___ftpack (ARG)
   723 ;;                             ___lmul (ARG)
   724 ;; ---------------------------------------------------------------------------------
   725 ;; (2) ___lmul                                              13     5      8      92
   726 ;;                                              4 COMMON     5     5      0
   727 ;;                                              0 BANK0      8     0      8
   728 ;; ---------------------------------------------------------------------------------
   729 ;; (2) ___ftpack                                             8     3      5     209
   730 ;;                                              4 COMMON     5     0      5
   731 ;;                                              0 BANK0      3     3      0
   732 ;; ---------------------------------------------------------------------------------
   733 ;; (1) ___bmul                                               4     3      1      92
   734 ;;                                              9 COMMON     1     0      1
   735 ;;                                             22 BANK0      3     3      0
   736 ;;                            ___fttol (ARG)
   737 ;;                           ___ftpack (ARG)
   738 ;; ---------------------------------------------------------------------------------
   739 ;; (1) _RS232Tx                                              6     5      1     136
   740 ;;                                              4 COMMON     6     5      1
   741 ;; ---------------------------------------------------------------------------------
   742 ;; (1) _SPI_Config                                           0     0      0       0
   743 ;; ---------------------------------------------------------------------------------
   744 ;; Estimated maximum stack depth 2
   745 ;; ---------------------------------------------------------------------------------
   746 ;; (Depth) Function   	        Calls       Base Space   Used Autos Params    Refs
   747 ;; ---------------------------------------------------------------------------------
   748 ;; (4) _RSI                                                  4     4      0       0
   749 ;;                                              0 COMMON     4     4      0
   750 ;; ---------------------------------------------------------------------------------
   751 ;; Estimated maximum stack depth 4
   752 ;; ---------------------------------------------------------------------------------
   753                           
   754 ;; Call Graph Graphs:
   755                           
   756 ;; _main (ROOT)
   757 ;;   _Rs232Conf
   758 ;;     ___lmul
   759 ;;     ___altoft
   760 ;;       ___ftpack
   761 ;;       ___lmul (ARG)
   762 ;;       ___fttol (ARG)
   763 ;;         ___ftpack (ARG)
   764 ;;         ___lmul (ARG)
   765 ;;     ___lwtoft
   766 ;;       ___ftpack
   767 ;;       ___fttol (ARG)
   768 ;;         ___ftpack (ARG)
   769 ;;         ___lmul (ARG)
   770 ;;     ___ftadd
   771 ;;       ___ftpack
   772 ;;       ___ftneg (ARG)
   773 ;;         ___ftpack (ARG)
   774 ;;         ___fttol (ARG)
   775 ;;           ___ftpack (ARG)
   776 ;;           ___lmul (ARG)
   777 ;;       ___lbtoft (ARG)
   778 ;;         ___ftpack
   779 ;;         ___ftneg (ARG)
   780 ;;           ___ftpack (ARG)
   781 ;;           ___fttol (ARG)
   782 ;;             ___ftpack (ARG)
   783 ;;             ___lmul (ARG)
   784 ;;         ___fttol (ARG)
   785 ;;           ___ftpack (ARG)
   786 ;;           ___lmul (ARG)
   787 ;;       ___fttol (ARG)
   788 ;;         ___ftpack (ARG)
   789 ;;         ___lmul (ARG)
   790 ;;       ___lwtoft (ARG)
   791 ;;         ___ftpack
   792 ;;         ___fttol (ARG)
   793 ;;           ___ftpack (ARG)
   794 ;;           ___lmul (ARG)
   795 ;;     ___ftmul
   796 ;;       ___ftpack
   797 ;;       ___awtoft (ARG)
   798 ;;         ___ftpack
   799 ;;         ___fttol (ARG)
   800 ;;           ___ftpack (ARG)
   801 ;;           ___lmul (ARG)
   802 ;;       ___fttol (ARG)
   803 ;;         ___ftpack (ARG)
   804 ;;         ___lmul (ARG)
   805 ;;       ___ftadd (ARG)
   806 ;;         ___ftpack
   807 ;;         ___ftneg (ARG)
   808 ;;           ___ftpack (ARG)
   809 ;;           ___fttol (ARG)
   810 ;;             ___ftpack (ARG)
   811 ;;             ___lmul (ARG)
   812 ;;         ___lbtoft (ARG)
   813 ;;           ___ftpack
   814 ;;           ___ftneg (ARG)
   815 ;;             ___ftpack (ARG)
   816 ;;             ___fttol (ARG)
   817 ;;               ___ftpack (ARG)
   818 ;;               ___lmul (ARG)
   819 ;;           ___fttol (ARG)
   820 ;;             ___ftpack (ARG)
   821 ;;             ___lmul (ARG)
   822 ;;         ___fttol (ARG)
   823 ;;           ___ftpack (ARG)
   824 ;;           ___lmul (ARG)
   825 ;;         ___lwtoft (ARG)
   826 ;;           ___ftpack
   827 ;;           ___fttol (ARG)
   828 ;;             ___ftpack (ARG)
   829 ;;             ___lmul (ARG)
   830 ;;       ___ftneg (ARG)
   831 ;;         ___ftpack (ARG)
   832 ;;         ___fttol (ARG)
   833 ;;           ___ftpack (ARG)
   834 ;;           ___lmul (ARG)
   835 ;;       ___lbtoft (ARG)
   836 ;;         ___ftpack
   837 ;;         ___ftneg (ARG)
   838 ;;           ___ftpack (ARG)
   839 ;;           ___fttol (ARG)
   840 ;;             ___ftpack (ARG)
   841 ;;             ___lmul (ARG)
   842 ;;         ___fttol (ARG)
   843 ;;           ___ftpack (ARG)
   844 ;;           ___lmul (ARG)
   845 ;;       ___lwtoft (ARG)
   846 ;;         ___ftpack
   847 ;;         ___fttol (ARG)
   848 ;;           ___ftpack (ARG)
   849 ;;           ___lmul (ARG)
   850 ;;     ___ftdiv
   851 ;;       ___ftpack
   852 ;;       ___fttol (ARG)
   853 ;;         ___ftpack (ARG)
   854 ;;         ___lmul (ARG)
   855 ;;       ___bmul (ARG)
   856 ;;         ___fttol (ARG)
   857 ;;           ___ftpack (ARG)
   858 ;;           ___lmul (ARG)
   859 ;;         ___ftpack (ARG)
   860 ;;       ___altoft (ARG)
   861 ;;         ___ftpack
   862 ;;         ___lmul (ARG)
   863 ;;         ___fttol (ARG)
   864 ;;           ___ftpack (ARG)
   865 ;;           ___lmul (ARG)
   866 ;;       ___lmul (ARG)
   867 ;;       ___ftmul (ARG)
   868 ;;         ___ftpack
   869 ;;         ___awtoft (ARG)
   870 ;;           ___ftpack
   871 ;;           ___fttol (ARG)
   872 ;;             ___ftpack (ARG)
   873 ;;             ___lmul (ARG)
   874 ;;         ___fttol (ARG)
   875 ;;           ___ftpack (ARG)
   876 ;;           ___lmul (ARG)
   877 ;;         ___ftadd (ARG)
   878 ;;           ___ftpack
   879 ;;           ___ftneg (ARG)
   880 ;;             ___ftpack (ARG)
   881 ;;             ___fttol (ARG)
   882 ;;               ___ftpack (ARG)
   883 ;;               ___lmul (ARG)
   884 ;;           ___lbtoft (ARG)
   885 ;;             ___ftpack
   886 ;;             ___ftneg (ARG)
   887 ;;               ___ftpack (ARG)
   888 ;;               ___fttol (ARG)
   889 ;;                 ___ftpack (ARG)
   890 ;;                 ___lmul (ARG)
   891 ;;             ___fttol (ARG)
   892 ;;               ___ftpack (ARG)
   893 ;;               ___lmul (ARG)
   894 ;;           ___fttol (ARG)
   895 ;;             ___ftpack (ARG)
   896 ;;             ___lmul (ARG)
   897 ;;           ___lwtoft (ARG)
   898 ;;             ___ftpack
   899 ;;             ___fttol (ARG)
   900 ;;               ___ftpack (ARG)
   901 ;;               ___lmul (ARG)
   902 ;;         ___ftneg (ARG)
   903 ;;           ___ftpack (ARG)
   904 ;;           ___fttol (ARG)
   905 ;;             ___ftpack (ARG)
   906 ;;             ___lmul (ARG)
   907 ;;         ___lbtoft (ARG)
   908 ;;           ___ftpack
   909 ;;           ___ftneg (ARG)
   910 ;;             ___ftpack (ARG)
   911 ;;             ___fttol (ARG)
   912 ;;               ___ftpack (ARG)
   913 ;;               ___lmul (ARG)
   914 ;;           ___fttol (ARG)
   915 ;;             ___ftpack (ARG)
   916 ;;             ___lmul (ARG)
   917 ;;         ___lwtoft (ARG)
   918 ;;           ___ftpack
   919 ;;           ___fttol (ARG)
   920 ;;             ___ftpack (ARG)
   921 ;;             ___lmul (ARG)
   922 ;;       ___ftadd (ARG)
   923 ;;         ___ftpack
   924 ;;         ___ftneg (ARG)
   925 ;;           ___ftpack (ARG)
   926 ;;           ___fttol (ARG)
   927 ;;             ___ftpack (ARG)
   928 ;;             ___lmul (ARG)
   929 ;;         ___lbtoft (ARG)
   930 ;;           ___ftpack
   931 ;;           ___ftneg (ARG)
   932 ;;             ___ftpack (ARG)
   933 ;;             ___fttol (ARG)
   934 ;;               ___ftpack (ARG)
   935 ;;               ___lmul (ARG)
   936 ;;           ___fttol (ARG)
   937 ;;             ___ftpack (ARG)
   938 ;;             ___lmul (ARG)
   939 ;;         ___fttol (ARG)
   940 ;;           ___ftpack (ARG)
   941 ;;           ___lmul (ARG)
   942 ;;         ___lwtoft (ARG)
   943 ;;           ___ftpack
   944 ;;           ___fttol (ARG)
   945 ;;             ___ftpack (ARG)
   946 ;;             ___lmul (ARG)
   947 ;;       ___lwtoft (ARG)
   948 ;;         ___ftpack
   949 ;;         ___fttol (ARG)
   950 ;;           ___ftpack (ARG)
   951 ;;           ___lmul (ARG)
   952 ;;     ___fttol
   953 ;;       ___ftpack (ARG)
   954 ;;       ___lmul (ARG)
   955 ;;   _SPI_Config
   956 ;;   _convert_temp
   957 ;;     ___lwtoft
   958 ;;       ___ftpack
   959 ;;       ___fttol (ARG)
   960 ;;         ___ftpack (ARG)
   961 ;;         ___lmul (ARG)
   962 ;;     ___ftmul
   963 ;;       ___ftpack
   964 ;;       ___awtoft (ARG)
   965 ;;         ___ftpack
   966 ;;         ___fttol (ARG)
   967 ;;           ___ftpack (ARG)
   968 ;;           ___lmul (ARG)
   969 ;;       ___fttol (ARG)
   970 ;;         ___ftpack (ARG)
   971 ;;         ___lmul (ARG)
   972 ;;       ___ftadd (ARG)
   973 ;;         ___ftpack
   974 ;;         ___ftneg (ARG)
   975 ;;           ___ftpack (ARG)
   976 ;;           ___fttol (ARG)
   977 ;;             ___ftpack (ARG)
   978 ;;             ___lmul (ARG)
   979 ;;         ___lbtoft (ARG)
   980 ;;           ___ftpack
   981 ;;           ___ftneg (ARG)
   982 ;;             ___ftpack (ARG)
   983 ;;             ___fttol (ARG)
   984 ;;               ___ftpack (ARG)
   985 ;;               ___lmul (ARG)
   986 ;;           ___fttol (ARG)
   987 ;;             ___ftpack (ARG)
   988 ;;             ___lmul (ARG)
   989 ;;         ___fttol (ARG)
   990 ;;           ___ftpack (ARG)
   991 ;;           ___lmul (ARG)
   992 ;;         ___lwtoft (ARG)
   993 ;;           ___ftpack
   994 ;;           ___fttol (ARG)
   995 ;;             ___ftpack (ARG)
   996 ;;             ___lmul (ARG)
   997 ;;       ___ftneg (ARG)
   998 ;;         ___ftpack (ARG)
   999 ;;         ___fttol (ARG)
  1000 ;;           ___ftpack (ARG)
  1001 ;;           ___lmul (ARG)
  1002 ;;       ___lbtoft (ARG)
  1003 ;;         ___ftpack
  1004 ;;         ___ftneg (ARG)
  1005 ;;           ___ftpack (ARG)
  1006 ;;           ___fttol (ARG)
  1007 ;;             ___ftpack (ARG)
  1008 ;;             ___lmul (ARG)
  1009 ;;         ___fttol (ARG)
  1010 ;;           ___ftpack (ARG)
  1011 ;;           ___lmul (ARG)
  1012 ;;       ___lwtoft (ARG)
  1013 ;;         ___ftpack
  1014 ;;         ___fttol (ARG)
  1015 ;;           ___ftpack (ARG)
  1016 ;;           ___lmul (ARG)
  1017 ;;   ___ftge
  1018 ;;   ___ftneg
  1019 ;;     ___ftpack (ARG)
  1020 ;;     ___fttol (ARG)
  1021 ;;       ___ftpack (ARG)
  1022 ;;       ___lmul (ARG)
  1023 ;;   ___ftdiv
  1024 ;;     ___ftpack
  1025 ;;     ___fttol (ARG)
  1026 ;;       ___ftpack (ARG)
  1027 ;;       ___lmul (ARG)
  1028 ;;     ___bmul (ARG)
  1029 ;;       ___fttol (ARG)
  1030 ;;         ___ftpack (ARG)
  1031 ;;         ___lmul (ARG)
  1032 ;;       ___ftpack (ARG)
  1033 ;;     ___altoft (ARG)
  1034 ;;       ___ftpack
  1035 ;;       ___lmul (ARG)
  1036 ;;       ___fttol (ARG)
  1037 ;;         ___ftpack (ARG)
  1038 ;;         ___lmul (ARG)
  1039 ;;     ___lmul (ARG)
  1040 ;;     ___ftmul (ARG)
  1041 ;;       ___ftpack
  1042 ;;       ___awtoft (ARG)
  1043 ;;         ___ftpack
  1044 ;;         ___fttol (ARG)
  1045 ;;           ___ftpack (ARG)
  1046 ;;           ___lmul (ARG)
  1047 ;;       ___fttol (ARG)
  1048 ;;         ___ftpack (ARG)
  1049 ;;         ___lmul (ARG)
  1050 ;;       ___ftadd (ARG)
  1051 ;;         ___ftpack
  1052 ;;         ___ftneg (ARG)
  1053 ;;           ___ftpack (ARG)
  1054 ;;           ___fttol (ARG)
  1055 ;;             ___ftpack (ARG)
  1056 ;;             ___lmul (ARG)
  1057 ;;         ___lbtoft (ARG)
  1058 ;;           ___ftpack
  1059 ;;           ___ftneg (ARG)
  1060 ;;             ___ftpack (ARG)
  1061 ;;             ___fttol (ARG)
  1062 ;;               ___ftpack (ARG)
  1063 ;;               ___lmul (ARG)
  1064 ;;           ___fttol (ARG)
  1065 ;;             ___ftpack (ARG)
  1066 ;;             ___lmul (ARG)
  1067 ;;         ___fttol (ARG)
  1068 ;;           ___ftpack (ARG)
  1069 ;;           ___lmul (ARG)
  1070 ;;         ___lwtoft (ARG)
  1071 ;;           ___ftpack
  1072 ;;           ___fttol (ARG)
  1073 ;;             ___ftpack (ARG)
  1074 ;;             ___lmul (ARG)
  1075 ;;       ___ftneg (ARG)
  1076 ;;         ___ftpack (ARG)
  1077 ;;         ___fttol (ARG)
  1078 ;;           ___ftpack (ARG)
  1079 ;;           ___lmul (ARG)
  1080 ;;       ___lbtoft (ARG)
  1081 ;;         ___ftpack
  1082 ;;         ___ftneg (ARG)
  1083 ;;           ___ftpack (ARG)
  1084 ;;           ___fttol (ARG)
  1085 ;;             ___ftpack (ARG)
  1086 ;;             ___lmul (ARG)
  1087 ;;         ___fttol (ARG)
  1088 ;;           ___ftpack (ARG)
  1089 ;;           ___lmul (ARG)
  1090 ;;       ___lwtoft (ARG)
  1091 ;;         ___ftpack
  1092 ;;         ___fttol (ARG)
  1093 ;;           ___ftpack (ARG)
  1094 ;;           ___lmul (ARG)
  1095 ;;     ___ftadd (ARG)
  1096 ;;       ___ftpack
  1097 ;;       ___ftneg (ARG)
  1098 ;;         ___ftpack (ARG)
  1099 ;;         ___fttol (ARG)
  1100 ;;           ___ftpack (ARG)
  1101 ;;           ___lmul (ARG)
  1102 ;;       ___lbtoft (ARG)
  1103 ;;         ___ftpack
  1104 ;;         ___ftneg (ARG)
  1105 ;;           ___ftpack (ARG)
  1106 ;;           ___fttol (ARG)
  1107 ;;             ___ftpack (ARG)
  1108 ;;             ___lmul (ARG)
  1109 ;;         ___fttol (ARG)
  1110 ;;           ___ftpack (ARG)
  1111 ;;           ___lmul (ARG)
  1112 ;;       ___fttol (ARG)
  1113 ;;         ___ftpack (ARG)
  1114 ;;         ___lmul (ARG)
  1115 ;;       ___lwtoft (ARG)
  1116 ;;         ___ftpack
  1117 ;;         ___fttol (ARG)
  1118 ;;           ___ftpack (ARG)
  1119 ;;           ___lmul (ARG)
  1120 ;;     ___lwtoft (ARG)
  1121 ;;       ___ftpack
  1122 ;;       ___fttol (ARG)
  1123 ;;         ___ftpack (ARG)
  1124 ;;         ___lmul (ARG)
  1125 ;;   ___fttol
  1126 ;;     ___ftpack (ARG)
  1127 ;;     ___lmul (ARG)
  1128 ;;   ___awtoft
  1129 ;;     ___ftpack
  1130 ;;     ___fttol (ARG)
  1131 ;;       ___ftpack (ARG)
  1132 ;;       ___lmul (ARG)
  1133 ;;   ___ftmul
  1134 ;;     ___ftpack
  1135 ;;     ___awtoft (ARG)
  1136 ;;       ___ftpack
  1137 ;;       ___fttol (ARG)
  1138 ;;         ___ftpack (ARG)
  1139 ;;         ___lmul (ARG)
  1140 ;;     ___fttol (ARG)
  1141 ;;       ___ftpack (ARG)
  1142 ;;       ___lmul (ARG)
  1143 ;;     ___ftadd (ARG)
  1144 ;;       ___ftpack
  1145 ;;       ___ftneg (ARG)
  1146 ;;         ___ftpack (ARG)
  1147 ;;         ___fttol (ARG)
  1148 ;;           ___ftpack (ARG)
  1149 ;;           ___lmul (ARG)
  1150 ;;       ___lbtoft (ARG)
  1151 ;;         ___ftpack
  1152 ;;         ___ftneg (ARG)
  1153 ;;           ___ftpack (ARG)
  1154 ;;           ___fttol (ARG)
  1155 ;;             ___ftpack (ARG)
  1156 ;;             ___lmul (ARG)
  1157 ;;         ___fttol (ARG)
  1158 ;;           ___ftpack (ARG)
  1159 ;;           ___lmul (ARG)
  1160 ;;       ___fttol (ARG)
  1161 ;;         ___ftpack (ARG)
  1162 ;;         ___lmul (ARG)
  1163 ;;       ___lwtoft (ARG)
  1164 ;;         ___ftpack
  1165 ;;         ___fttol (ARG)
  1166 ;;           ___ftpack (ARG)
  1167 ;;           ___lmul (ARG)
  1168 ;;     ___ftneg (ARG)
  1169 ;;       ___ftpack (ARG)
  1170 ;;       ___fttol (ARG)
  1171 ;;         ___ftpack (ARG)
  1172 ;;         ___lmul (ARG)
  1173 ;;     ___lbtoft (ARG)
  1174 ;;       ___ftpack
  1175 ;;       ___ftneg (ARG)
  1176 ;;         ___ftpack (ARG)
  1177 ;;         ___fttol (ARG)
  1178 ;;           ___ftpack (ARG)
  1179 ;;           ___lmul (ARG)
  1180 ;;       ___fttol (ARG)
  1181 ;;         ___ftpack (ARG)
  1182 ;;         ___lmul (ARG)
  1183 ;;     ___lwtoft (ARG)
  1184 ;;       ___ftpack
  1185 ;;       ___fttol (ARG)
  1186 ;;         ___ftpack (ARG)
  1187 ;;         ___lmul (ARG)
  1188 ;;   ___bmul
  1189 ;;     ___fttol (ARG)
  1190 ;;       ___ftpack (ARG)
  1191 ;;       ___lmul (ARG)
  1192 ;;     ___ftpack (ARG)
  1193 ;;   ___lbtoft
  1194 ;;     ___ftpack
  1195 ;;     ___ftneg (ARG)
  1196 ;;       ___ftpack (ARG)
  1197 ;;       ___fttol (ARG)
  1198 ;;         ___ftpack (ARG)
  1199 ;;         ___lmul (ARG)
  1200 ;;     ___fttol (ARG)
  1201 ;;       ___ftpack (ARG)
  1202 ;;       ___lmul (ARG)
  1203 ;;   ___ftadd
  1204 ;;     ___ftpack
  1205 ;;     ___ftneg (ARG)
  1206 ;;       ___ftpack (ARG)
  1207 ;;       ___fttol (ARG)
  1208 ;;         ___ftpack (ARG)
  1209 ;;         ___lmul (ARG)
  1210 ;;     ___lbtoft (ARG)
  1211 ;;       ___ftpack
  1212 ;;       ___ftneg (ARG)
  1213 ;;         ___ftpack (ARG)
  1214 ;;         ___fttol (ARG)
  1215 ;;           ___ftpack (ARG)
  1216 ;;           ___lmul (ARG)
  1217 ;;       ___fttol (ARG)
  1218 ;;         ___ftpack (ARG)
  1219 ;;         ___lmul (ARG)
  1220 ;;     ___fttol (ARG)
  1221 ;;       ___ftpack (ARG)
  1222 ;;       ___lmul (ARG)
  1223 ;;     ___lwtoft (ARG)
  1224 ;;       ___ftpack
  1225 ;;       ___fttol (ARG)
  1226 ;;         ___ftpack (ARG)
  1227 ;;         ___lmul (ARG)
  1228 ;;   _RS232Tx
  1229 ;;
  1230 ;; _RSI (ROOT)
  1231 ;;
  1232                           
  1233 ;; Address spaces:
  1234                           
  1235 ;;Name               Size   Autos  Total    Cost      Usage
  1236 ;;BANK3               60      0       0       9        0.0%
  1237 ;;BITBANK3            60      0       0       8        0.0%
  1238 ;;SFR3                 0      0       0       4        0.0%
  1239 ;;BITSFR3              0      0       0       4        0.0%
  1240 ;;BANK2               60      0       0      11        0.0%
  1241 ;;BITBANK2            60      0       0      10        0.0%
  1242 ;;SFR2                 0      0       0       5        0.0%
  1243 ;;BITSFR2              0      0       0       5        0.0%
  1244 ;;SFR1                 0      0       0       2        0.0%
  1245 ;;BITSFR1              0      0       0       2        0.0%
  1246 ;;BANK1               50     16      21       7       41.3%
  1247 ;;BITBANK1            50      0       0       6        0.0%
  1248 ;;CODE                 0      0       0       0        0.0%
  1249 ;;DATA                 0      0      7B      12        0.0%
  1250 ;;ABS                  0      0      78       3        0.0%
  1251 ;;NULL                 0      0       0       0        0.0%
  1252 ;;STACK                0      0       3       2        0.0%
  1253 ;;BANK0               50     4D      4D       5       96.3%
  1254 ;;BITBANK0            50      0       0       4        0.0%
  1255 ;;SFR0                 0      0       0       1        0.0%
  1256 ;;BITSFR0              0      0       0       1        0.0%
  1257 ;;COMMON               E      A       A       1       71.4%
  1258 ;;BITCOMMON            E      0       0       0        0.0%
  1259 ;;EEDATA             100      0       0       0        0.0%
  1260                           
  1261                           	global	_main
  1262                           psect	maintext,global,class=CODE,delta=2
  1263                           global __pmaintext
  1264  0015                     __pmaintext:
  1265                           
  1266 ;; *************** function _main *****************
  1267 ;; Defined at:
  1268 ;;		line 13 in file "C:\Users\Ricardo\Mestrado\TAC\trab10\p10.c"
  1269 ;; Parameters:    Size  Location     Type
  1270 ;;		None
  1271 ;; Auto vars:     Size  Location     Type
  1272 ;;  env             7    8[BANK1 ] unsigned char [7]
  1273 ;;  temperatura     3   19[BANK1 ] float 
  1274 ;;  i               2   17[BANK1 ] unsigned int 
  1275 ;;  a               2   15[BANK1 ] unsigned char [2]
  1276 ;; Return value:  Size  Location     Type
  1277 ;;		None               void
  1278 ;; Registers used:
  1279 ;;		wreg, fsr0l, fsr0h, status,2, status,0, pclath, cstack
  1280 ;; Tracked objects:
  1281 ;;		On entry : 17F/0
  1282 ;;		On exit  : 0/0
  1283 ;;		Unchanged: 0/0
  1284 ;; Data sizes:     COMMON   BANK0   BANK1   BANK3   BANK2
  1285 ;;      Params:         0       0       0       0       0
  1286 ;;      Locals:         0       0      14       0       0
  1287 ;;      Temps:          0       0       4       0       0
  1288 ;;      Totals:         0       0      18       0       0
  1289 ;;Total ram usage:       18 bytes
  1290 ;; Hardware stack levels required when called:    4
  1291 ;; This function calls:
  1292 ;;		_Rs232Conf
  1293 ;;		_SPI_Config
  1294 ;;		_convert_temp
  1295 ;;		___ftge
  1296 ;;		___ftneg
  1297 ;;		___ftdiv
  1298 ;;		___fttol
  1299 ;;		___awtoft
  1300 ;;		___ftmul
  1301 ;;		___bmul
  1302 ;;		___lbtoft
  1303 ;;		___ftadd
  1304 ;;		_RS232Tx
  1305 ;; This function is called by:
  1306 ;;		Startup code after reset
  1307 ;; This function uses a non-reentrant model
  1308 ;;
  1309                           psect	maintext
  1310                           	file	"C:\Users\Ricardo\Mestrado\TAC\trab10\p10.c"
  1311                           	line	13
  1312                           	global	__size_of_main
  1313  02CA                     	__size_of_main	equ	__end_of_main-_main
  1314                           	
  1315  0015                     _main:	
  1316                           	opt	stack 4
  1317                           ; Regs used in _main: [wreg-fsr0h+status,2+status,0+pclath+cstack]
  1318                           	line	14
  1319                           	
  1320  0015                     l5277:	
  1321                           ;p10.c: 14: TRISB0=0;
  1322  0015  1683               	bsf	status, 5	;RP0=1, select bank1
  1323  0016  1303               	bcf	status, 6	;RP1=0, select bank1
  1324  0017  1006               	bcf	(1072/8)^080h,(1072)&7
  1325                           	line	15
  1326                           ;p10.c: 15: RB0=0;
  1327  0018  1283               	bcf	status, 5	;RP0=0, select bank0
  1328  0019  1303               	bcf	status, 6	;RP1=0, select bank0
  1329  001A  1006               	bcf	(48/8),(48)&7
  1330                           	line	18
  1331                           	
  1332  001B                     l5279:	
  1333                           ;p10.c: 18: Rs232Conf(9600, 4);
  1334  001B  3080               	movlw	low(02580h)
  1335  001C  1683               	bsf	status, 5	;RP0=1, select bank1
  1336  001D  1303               	bcf	status, 6	;RP1=0, select bank1
  1337  001E  00A0               	movwf	(?_Rs232Conf)^080h
  1338  001F  3025               	movlw	high(02580h)
  1339  0020  00A1               	movwf	((?_Rs232Conf)^080h)+1
  1340  0021  3004               	movlw	low(04h)
  1341  0022  00A2               	movwf	0+(?_Rs232Conf)^080h+02h
  1342  0023  3000               	movlw	high(04h)
  1343  0024  00A3               	movwf	(0+(?_Rs232Conf)^080h+02h)+1
  1344  0025  120A  118A  2681   	fcall	_Rs232Conf
              120A  118A         
  1345                           	line	20
  1346                           	
  1347  002A                     l5281:	
  1348                           ;p10.c: 20: SPI_Config();
  1349  002A  120A  158A  25DD   	fcall	_SPI_Config
              120A  118A         
  1350                           	line	23
  1351                           	
  1352  002F                     l5283:	
  1353                           ;p10.c: 23: unsigned char a[2]={0,0};
  1354  002F  1683               	bsf	status, 5	;RP0=1, select bank1
  1355  0030  1303               	bcf	status, 6	;RP1=0, select bank1
  1356  0031  0840               	movf	(main@F1124+1)^080h,w
  1357  0032  01B0               	clrf	(main@a+1)^080h
  1358  0033  07B0               	addwf	(main@a+1)^080h
  1359  0034  083F               	movf	(main@F1124)^080h,w
  1360  0035  01AF               	clrf	(main@a)^080h
  1361  0036  07AF               	addwf	(main@a)^080h
  1362                           
  1363                           	line	24
  1364                           	
  1365  0037                     l5285:	
  1366                           ;p10.c: 24: float temperatura=0.0;
  1367  0037  3000               	movlw	0x0
  1368  0038  00B3               	movwf	(main@temperatura)^080h
  1369  0039  3000               	movlw	0x0
  1370  003A  00B4               	movwf	(main@temperatura+1)^080h
  1371  003B  3000               	movlw	0x0
  1372  003C  00B5               	movwf	(main@temperatura+2)^080h
  1373                           	line	25
  1374                           	
  1375  003D                     l5287:	
  1376                           ;p10.c: 25: unsigned int i=0;
  1377  003D  01B1               	clrf	(main@i)^080h
  1378  003E  01B2               	clrf	(main@i+1)^080h
  1379                           	line	26
  1380                           	
  1381  003F                     l5289:	
  1382                           ;p10.c: 26: char env[7]={0,0,0,0,0,0,' '};
  1383  003F  30A8               	movlw	(main@env)&0ffh
  1384  0040  0084               	movwf	fsr0
  1385  0041  30B6               	movlw	low(main@F1128)
  1386  0042  00A4               	movwf	(??_main+0)^080h+0
  1387  0043  0804               	movf	fsr0,w
  1388  0044  00A5               	movwf	((??_main+0)^080h+0+1)
  1389  0045  3007               	movlw	7
  1390  0046  00A6               	movwf	((??_main+0)^080h+0+2)
  1391  0047                     u3470:
  1392  0047  0824               	movf	(??_main+0)^080h+0,w
  1393  0048  0084               	movwf	fsr0
  1394  0049  1383               	bcf	status, 7	;select IRP bank1
  1395                           	
  1396  004A  0800               	movf	indf,w
  1397  004B  00A7               	movwf	((??_main+0)^080h+0+3)
  1398  004C  0AA4               	incf	(??_main+0)^080h+0,f
  1399  004D  0825               	movf	((??_main+0)^080h+0+1),w
  1400  004E  0084               	movwf	fsr0
  1401                           	
  1402  004F  0827               	movf	((??_main+0)^080h+0+3),w
  1403  0050  0080               	movwf	indf
  1404  0051  0AA5               	incf	((??_main+0)^080h+0+1),f
  1405  0052  0BA6               	decfsz	((??_main+0)^080h+0+2),f
  1406  0053  2847               	goto	u3470
  1407  0054  2855               	goto	l5291
  1408                           	line	28
  1409                           ;p10.c: 28: while(1){
  1410                           	
  1411  0055                     l701:	
  1412                           	line	29
  1413                           	
  1414  0055                     l5291:	
  1415                           ;p10.c: 29: RB4=1;
  1416  0055  1283               	bcf	status, 5	;RP0=0, select bank0
  1417  0056  1303               	bcf	status, 6	;RP1=0, select bank0
  1418  0057  1606               	bsf	(52/8),(52)&7
  1419                           	line	31
  1420                           	
  1421  0058                     l5293:	
  1422                           ;p10.c: 31: for(i=0;i<30000;i++){}
  1423  0058  1683               	bsf	status, 5	;RP0=1, select bank1
  1424  0059  1303               	bcf	status, 6	;RP1=0, select bank1
  1425  005A  01B1               	clrf	(main@i)^080h
  1426  005B  01B2               	clrf	(main@i+1)^080h
  1427                           	
  1428  005C                     l5295:	
  1429  005C  3075               	movlw	high(07530h)
  1430  005D  0232               	subwf	(main@i+1)^080h,w
  1431  005E  3030               	movlw	low(07530h)
  1432  005F  1903               	skipnz
  1433  0060  0231               	subwf	(main@i)^080h,w
  1434  0061  1C03               	skipc
  1435  0062  2864               	goto	u3481
  1436  0063  2865               	goto	u3480
  1437  0064                     u3481:
  1438  0064  2867               	goto	l5299
  1439  0065                     u3480:
  1440  0065  2876               	goto	l703
  1441                           	
  1442  0066                     l5297:	
  1443  0066  2876               	goto	l703
  1444                           	
  1445  0067                     l702:	
  1446                           	
  1447  0067                     l5299:	
  1448  0067  3001               	movlw	low(01h)
  1449  0068  07B1               	addwf	(main@i)^080h,f
  1450  0069  1803               	skipnc
  1451  006A  0AB2               	incf	(main@i+1)^080h,f
  1452  006B  3000               	movlw	high(01h)
  1453  006C  07B2               	addwf	(main@i+1)^080h,f
  1454  006D  3075               	movlw	high(07530h)
  1455  006E  0232               	subwf	(main@i+1)^080h,w
  1456  006F  3030               	movlw	low(07530h)
  1457  0070  1903               	skipnz
  1458  0071  0231               	subwf	(main@i)^080h,w
  1459  0072  1C03               	skipc
  1460  0073  2875               	goto	u3491
  1461  0074  2876               	goto	u3490
  1462  0075                     u3491:
  1463  0075  2867               	goto	l5299
  1464  0076                     u3490:
  1465                           	
  1466  0076                     l703:	
  1467                           	line	33
  1468                           ;p10.c: 33: RB4=0;
  1469  0076  1283               	bcf	status, 5	;RP0=0, select bank0
  1470  0077  1303               	bcf	status, 6	;RP1=0, select bank0
  1471  0078  1206               	bcf	(52/8),(52)&7
  1472                           	line	35
  1473                           	
  1474  0079                     l5301:	
  1475                           ;p10.c: 35: SSPBUF=0x00;
  1476  0079  0193               	clrf	(19)	;volatile
  1477                           	line	36
  1478                           ;p10.c: 36: while(BF==0);
  1479  007A  287B               	goto	l704
  1480                           	
  1481  007B                     l705:	
  1482                           	
  1483  007B                     l704:	
  1484  007B  1683               	bsf	status, 5	;RP0=1, select bank1
  1485  007C  1303               	bcf	status, 6	;RP1=0, select bank1
  1486  007D  1C14               	btfss	(1184/8)^080h,(1184)&7
  1487  007E  2880               	goto	u3501
  1488  007F  2881               	goto	u3500
  1489  0080                     u3501:
  1490  0080  287B               	goto	l704
  1491  0081                     u3500:
  1492  0081  2882               	goto	l5303
  1493                           	
  1494  0082                     l706:	
  1495                           	line	37
  1496                           	
  1497  0082                     l5303:	
  1498                           ;p10.c: 37: a[0]=SSPBUF;
  1499  0082  1283               	bcf	status, 5	;RP0=0, select bank0
  1500  0083  1303               	bcf	status, 6	;RP1=0, select bank0
  1501  0084  0813               	movf	(19),w	;volatile
  1502  0085  1683               	bsf	status, 5	;RP0=1, select bank1
  1503  0086  1303               	bcf	status, 6	;RP1=0, select bank1
  1504  0087  00A4               	movwf	(??_main+0)^080h+0
  1505  0088  0824               	movf	(??_main+0)^080h+0,w
  1506  0089  00AF               	movwf	(main@a)^080h
  1507                           	line	39
  1508                           	
  1509  008A                     l5305:	
  1510                           ;p10.c: 39: SSPBUF=0x00;
  1511  008A  1283               	bcf	status, 5	;RP0=0, select bank0
  1512  008B  1303               	bcf	status, 6	;RP1=0, select bank0
  1513  008C  0193               	clrf	(19)	;volatile
  1514                           	line	40
  1515                           ;p10.c: 40: while(BF==0);
  1516  008D  288E               	goto	l707
  1517                           	
  1518  008E                     l708:	
  1519                           	
  1520  008E                     l707:	
  1521  008E  1683               	bsf	status, 5	;RP0=1, select bank1
  1522  008F  1303               	bcf	status, 6	;RP1=0, select bank1
  1523  0090  1C14               	btfss	(1184/8)^080h,(1184)&7
  1524  0091  2893               	goto	u3511
  1525  0092  2894               	goto	u3510
  1526  0093                     u3511:
  1527  0093  288E               	goto	l707
  1528  0094                     u3510:
  1529  0094  2895               	goto	l5307
  1530                           	
  1531  0095                     l709:	
  1532                           	line	41
  1533                           	
  1534  0095                     l5307:	
  1535                           ;p10.c: 41: a[1]=SSPBUF;
  1536  0095  1283               	bcf	status, 5	;RP0=0, select bank0
  1537  0096  1303               	bcf	status, 6	;RP1=0, select bank0
  1538  0097  0813               	movf	(19),w	;volatile
  1539  0098  1683               	bsf	status, 5	;RP0=1, select bank1
  1540  0099  1303               	bcf	status, 6	;RP1=0, select bank1
  1541  009A  00A4               	movwf	(??_main+0)^080h+0
  1542  009B  0824               	movf	(??_main+0)^080h+0,w
  1543  009C  00B0               	movwf	0+(main@a)^080h+01h
  1544                           	line	43
  1545                           ;p10.c: 43: i=a[0];
  1546  009D  082F               	movf	(main@a)^080h,w
  1547  009E  00A4               	movwf	(??_main+0)^080h+0
  1548  009F  01A5               	clrf	(??_main+0)^080h+0+1
  1549  00A0  0824               	movf	0+(??_main+0)^080h+0,w
  1550  00A1  00B1               	movwf	(main@i)^080h
  1551  00A2  0825               	movf	1+(??_main+0)^080h+0,w
  1552  00A3  00B2               	movwf	(main@i+1)^080h
  1553                           	line	44
  1554                           ;p10.c: 44: i=i<<8;
  1555  00A4  0831               	movf	(main@i)^080h,w
  1556  00A5  00A5               	movwf	(??_main+0)^080h+0+1
  1557  00A6  01A4               	clrf	(??_main+0)^080h+0
  1558  00A7  0824               	movf	0+(??_main+0)^080h+0,w
  1559  00A8  00B1               	movwf	(main@i)^080h
  1560  00A9  0825               	movf	1+(??_main+0)^080h+0,w
  1561  00AA  00B2               	movwf	(main@i+1)^080h
  1562                           	line	45
  1563                           ;p10.c: 45: i=i+a[1];
  1564  00AB  0830               	movf	0+(main@a)^080h+01h,w
  1565  00AC  0731               	addwf	(main@i)^080h,w
  1566  00AD  00B1               	movwf	(main@i)^080h
  1567  00AE  0832               	movf	(main@i+1)^080h,w
  1568  00AF  1803               	skipnc
  1569  00B0  0A32               	incf	(main@i+1)^080h,w
  1570  00B1  00B2               	movwf	((main@i)^080h)+1
  1571                           	line	47
  1572                           	
  1573  00B2                     l5309:	
  1574                           ;p10.c: 47: temperatura =convert_temp(i);
  1575  00B2  0832               	movf	(main@i+1)^080h,w
  1576  00B3  1283               	bcf	status, 5	;RP0=0, select bank0
  1577  00B4  1303               	bcf	status, 6	;RP1=0, select bank0
  1578  00B5  01DE               	clrf	(?_convert_temp+1)
  1579  00B6  07DE               	addwf	(?_convert_temp+1)
  1580  00B7  1683               	bsf	status, 5	;RP0=1, select bank1
  1581  00B8  1303               	bcf	status, 6	;RP1=0, select bank1
  1582  00B9  0831               	movf	(main@i)^080h,w
  1583  00BA  1283               	bcf	status, 5	;RP0=0, select bank0
  1584  00BB  1303               	bcf	status, 6	;RP1=0, select bank0
  1585  00BC  01DD               	clrf	(?_convert_temp)
  1586  00BD  07DD               	addwf	(?_convert_temp)
  1587                           
  1588  00BE  120A  118A  2725   	fcall	_convert_temp
              120A  118A         
  1589  00C3  1283               	bcf	status, 5	;RP0=0, select bank0
  1590  00C4  1303               	bcf	status, 6	;RP1=0, select bank0
  1591  00C5  085D               	movf	(0+(?_convert_temp)),w
  1592  00C6  1683               	bsf	status, 5	;RP0=1, select bank1
  1593  00C7  1303               	bcf	status, 6	;RP1=0, select bank1
  1594  00C8  00B3               	movwf	(main@temperatura)^080h
  1595  00C9  1283               	bcf	status, 5	;RP0=0, select bank0
  1596  00CA  1303               	bcf	status, 6	;RP1=0, select bank0
  1597  00CB  085E               	movf	(1+(?_convert_temp)),w
  1598  00CC  1683               	bsf	status, 5	;RP0=1, select bank1
  1599  00CD  1303               	bcf	status, 6	;RP1=0, select bank1
  1600  00CE  00B4               	movwf	(main@temperatura+1)^080h
  1601  00CF  1283               	bcf	status, 5	;RP0=0, select bank0
  1602  00D0  1303               	bcf	status, 6	;RP1=0, select bank0
  1603  00D1  085F               	movf	(2+(?_convert_temp)),w
  1604  00D2  1683               	bsf	status, 5	;RP0=1, select bank1
  1605  00D3  1303               	bcf	status, 6	;RP1=0, select bank1
  1606  00D4  00B5               	movwf	(main@temperatura+2)^080h
  1607                           	line	49
  1608                           	
  1609  00D5                     l5311:	
  1610                           ;p10.c: 49: if(temperatura<0.0){
  1611  00D5  0833               	movf	(main@temperatura)^080h,w
  1612  00D6  00F4               	movwf	(?___ftge)
  1613  00D7  0834               	movf	(main@temperatura+1)^080h,w
  1614  00D8  00F5               	movwf	(?___ftge+1)
  1615  00D9  0835               	movf	(main@temperatura+2)^080h,w
  1616  00DA  00F6               	movwf	(?___ftge+2)
  1617  00DB  3000               	movlw	0x0
  1618  00DC  00F7               	movwf	0+(?___ftge)+03h
  1619  00DD  3000               	movlw	0x0
  1620  00DE  00F8               	movwf	1+(?___ftge)+03h
  1621  00DF  3000               	movlw	0x0
  1622  00E0  00F9               	movwf	2+(?___ftge)+03h
  1623  00E1  120A  158A  270F   	fcall	___ftge
              120A  118A         
  1624  00E6  1803               	btfsc	status,0
  1625  00E7  28E9               	goto	u3521
  1626  00E8  28EA               	goto	u3520
  1627  00E9                     u3521:
  1628  00E9  2918               	goto	l5317
  1629  00EA                     u3520:
  1630                           	line	50
  1631                           	
  1632  00EA                     l5313:	
  1633                           ;p10.c: 50: env[0]='-';
  1634  00EA  302D               	movlw	(02Dh)
  1635  00EB  1683               	bsf	status, 5	;RP0=1, select bank1
  1636  00EC  1303               	bcf	status, 6	;RP1=0, select bank1
  1637  00ED  00A4               	movwf	(??_main+0)^080h+0
  1638  00EE  0824               	movf	(??_main+0)^080h+0,w
  1639  00EF  00A8               	movwf	(main@env)^080h
  1640                           	line	51
  1641                           	
  1642  00F0                     l5315:	
  1643                           ;p10.c: 51: temperatura=-temperatura;
  1644  00F0  0833               	movf	(main@temperatura)^080h,w
  1645  00F1  1283               	bcf	status, 5	;RP0=0, select bank0
  1646  00F2  1303               	bcf	status, 6	;RP1=0, select bank0
  1647  00F3  00B6               	movwf	(?___ftneg)
  1648  00F4  1683               	bsf	status, 5	;RP0=1, select bank1
  1649  00F5  1303               	bcf	status, 6	;RP1=0, select bank1
  1650  00F6  0834               	movf	(main@temperatura+1)^080h,w
  1651  00F7  1283               	bcf	status, 5	;RP0=0, select bank0
  1652  00F8  1303               	bcf	status, 6	;RP1=0, select bank0
  1653  00F9  00B7               	movwf	(?___ftneg+1)
  1654  00FA  1683               	bsf	status, 5	;RP0=1, select bank1
  1655  00FB  1303               	bcf	status, 6	;RP1=0, select bank1
  1656  00FC  0835               	movf	(main@temperatura+2)^080h,w
  1657  00FD  1283               	bcf	status, 5	;RP0=0, select bank0
  1658  00FE  1303               	bcf	status, 6	;RP1=0, select bank0
  1659  00FF  00B8               	movwf	(?___ftneg+2)
  1660  0100  120A  158A  2595   	fcall	___ftneg
              120A  118A         
  1661  0105  1283               	bcf	status, 5	;RP0=0, select bank0
  1662  0106  1303               	bcf	status, 6	;RP1=0, select bank0
  1663  0107  0836               	movf	(0+(?___ftneg)),w
  1664  0108  1683               	bsf	status, 5	;RP0=1, select bank1
  1665  0109  1303               	bcf	status, 6	;RP1=0, select bank1
  1666  010A  00B3               	movwf	(main@temperatura)^080h
  1667  010B  1283               	bcf	status, 5	;RP0=0, select bank0
  1668  010C  1303               	bcf	status, 6	;RP1=0, select bank0
  1669  010D  0837               	movf	(1+(?___ftneg)),w
  1670  010E  1683               	bsf	status, 5	;RP0=1, select bank1
  1671  010F  1303               	bcf	status, 6	;RP1=0, select bank1
  1672  0110  00B4               	movwf	(main@temperatura+1)^080h
  1673  0111  1283               	bcf	status, 5	;RP0=0, select bank0
  1674  0112  1303               	bcf	status, 6	;RP1=0, select bank0
  1675  0113  0838               	movf	(2+(?___ftneg)),w
  1676  0114  1683               	bsf	status, 5	;RP0=1, select bank1
  1677  0115  1303               	bcf	status, 6	;RP1=0, select bank1
  1678  0116  00B5               	movwf	(main@temperatura+2)^080h
  1679                           	line	52
  1680                           ;p10.c: 52: }
  1681  0117  291F               	goto	l5319
  1682                           	line	53
  1683                           	
  1684  0118                     l710:	
  1685                           	line	54
  1686                           	
  1687  0118                     l5317:	
  1688                           ;p10.c: 53: else{
  1689                           ;p10.c: 54: env[0]=' ';
  1690  0118  3020               	movlw	(020h)
  1691  0119  1683               	bsf	status, 5	;RP0=1, select bank1
  1692  011A  1303               	bcf	status, 6	;RP1=0, select bank1
  1693  011B  00A4               	movwf	(??_main+0)^080h+0
  1694  011C  0824               	movf	(??_main+0)^080h+0,w
  1695  011D  00A8               	movwf	(main@env)^080h
  1696  011E  291F               	goto	l5319
  1697                           	line	55
  1698                           	
  1699  011F                     l711:	
  1700                           	line	57
  1701                           	
  1702  011F                     l5319:	
  1703                           ;p10.c: 55: }
  1704                           ;p10.c: 57: if(temperatura>=100.0){
  1705  011F  0833               	movf	(main@temperatura)^080h,w
  1706  0120  00F4               	movwf	(?___ftge)
  1707  0121  0834               	movf	(main@temperatura+1)^080h,w
  1708  0122  00F5               	movwf	(?___ftge+1)
  1709  0123  0835               	movf	(main@temperatura+2)^080h,w
  1710  0124  00F6               	movwf	(?___ftge+2)
  1711  0125  3000               	movlw	0x0
  1712  0126  00F7               	movwf	0+(?___ftge)+03h
  1713  0127  30C8               	movlw	0xc8
  1714  0128  00F8               	movwf	1+(?___ftge)+03h
  1715  0129  3042               	movlw	0x42
  1716  012A  00F9               	movwf	2+(?___ftge)+03h
  1717  012B  120A  158A  270F   	fcall	___ftge
              120A  118A         
  1718  0130  1C03               	btfss	status,0
  1719  0131  2933               	goto	u3531
  1720  0132  2934               	goto	u3530
  1721  0133                     u3531:
  1722  0133  29CF               	goto	l5323
  1723  0134                     u3530:
  1724                           	line	58
  1725                           	
  1726  0134                     l5321:	
  1727                           ;p10.c: 58: env[1]=((unsigned char)(temperatura/100.0))+48;
  1728  0134  1683               	bsf	status, 5	;RP0=1, select bank1
  1729  0135  1303               	bcf	status, 6	;RP1=0, select bank1
  1730  0136  0833               	movf	(main@temperatura)^080h,w
  1731  0137  1283               	bcf	status, 5	;RP0=0, select bank0
  1732  0138  1303               	bcf	status, 6	;RP1=0, select bank0
  1733  0139  00E0               	movwf	0+(?___ftdiv)+03h
  1734  013A  1683               	bsf	status, 5	;RP0=1, select bank1
  1735  013B  1303               	bcf	status, 6	;RP1=0, select bank1
  1736  013C  0834               	movf	(main@temperatura+1)^080h,w
  1737  013D  1283               	bcf	status, 5	;RP0=0, select bank0
  1738  013E  1303               	bcf	status, 6	;RP1=0, select bank0
  1739  013F  00E1               	movwf	1+(?___ftdiv)+03h
  1740  0140  1683               	bsf	status, 5	;RP0=1, select bank1
  1741  0141  1303               	bcf	status, 6	;RP1=0, select bank1
  1742  0142  0835               	movf	(main@temperatura+2)^080h,w
  1743  0143  1283               	bcf	status, 5	;RP0=0, select bank0
  1744  0144  1303               	bcf	status, 6	;RP1=0, select bank0
  1745  0145  00E2               	movwf	2+(?___ftdiv)+03h
  1746  0146  3000               	movlw	0x0
  1747  0147  00DD               	movwf	(?___ftdiv)
  1748  0148  30C8               	movlw	0xc8
  1749  0149  00DE               	movwf	(?___ftdiv+1)
  1750  014A  3042               	movlw	0x42
  1751  014B  00DF               	movwf	(?___ftdiv+2)
  1752  014C  120A  118A  2513   	fcall	___ftdiv
              120A  118A         
  1753  0151  1283               	bcf	status, 5	;RP0=0, select bank0
  1754  0152  1303               	bcf	status, 6	;RP1=0, select bank0
  1755  0153  085D               	movf	(0+(?___ftdiv)),w
  1756  0154  00A8               	movwf	(?___fttol)
  1757  0155  085E               	movf	(1+(?___ftdiv)),w
  1758  0156  00A9               	movwf	(?___fttol+1)
  1759  0157  085F               	movf	(2+(?___ftdiv)),w
  1760  0158  00AA               	movwf	(?___fttol+2)
  1761  0159  120A  118A  25DB   	fcall	___fttol
              120A  118A         
  1762  015E  1283               	bcf	status, 5	;RP0=0, select bank0
  1763  015F  1303               	bcf	status, 6	;RP1=0, select bank0
  1764  0160  0828               	movf	0+(((0+(?___fttol)))),w
  1765  0161  3E30               	addlw	030h
  1766  0162  1683               	bsf	status, 5	;RP0=1, select bank1
  1767  0163  1303               	bcf	status, 6	;RP1=0, select bank1
  1768  0164  00A4               	movwf	(??_main+0)^080h+0
  1769  0165  0824               	movf	(??_main+0)^080h+0,w
  1770  0166  00A9               	movwf	0+(main@env)^080h+01h
  1771                           	line	59
  1772                           ;p10.c: 59: env[2]=((unsigned char)(temperatura/10.0))-(unsigned char)((float)(env[1]-48
                                 )*10.0)+48;
  1773  0167  0829               	movf	0+(main@env)^080h+01h,w
  1774  0168  3ED0               	addlw	low(-48)
  1775  0169  1283               	bcf	status, 5	;RP0=0, select bank0
  1776  016A  1303               	bcf	status, 6	;RP1=0, select bank0
  1777  016B  00B6               	movwf	(?___awtoft)
  1778  016C  30FF               	movlw	high(-48)
  1779  016D  1803               	skipnc
  1780  016E  3000               	movlw	(high(-48)+1)&0ffh
  1781  016F  00B7               	movwf	((?___awtoft))+1
  1782  0170  120A  158A  264A   	fcall	___awtoft
              120A  118A         
  1783  0175  1283               	bcf	status, 5	;RP0=0, select bank0
  1784  0176  1303               	bcf	status, 6	;RP1=0, select bank0
  1785  0177  0836               	movf	(0+(?___awtoft)),w
  1786  0178  00D0               	movwf	0+(?___ftmul)+03h
  1787  0179  0837               	movf	(1+(?___awtoft)),w
  1788  017A  00D1               	movwf	1+(?___ftmul)+03h
  1789  017B  0838               	movf	(2+(?___awtoft)),w
  1790  017C  00D2               	movwf	2+(?___ftmul)+03h
  1791  017D  3000               	movlw	0x0
  1792  017E  00CD               	movwf	(?___ftmul)
  1793  017F  3020               	movlw	0x20
  1794  0180  00CE               	movwf	(?___ftmul+1)
  1795  0181  3041               	movlw	0x41
  1796  0182  00CF               	movwf	(?___ftmul+2)
  1797  0183  120A  118A  2425   	fcall	___ftmul
              120A  118A         
  1798  0188  1283               	bcf	status, 5	;RP0=0, select bank0
  1799  0189  1303               	bcf	status, 6	;RP1=0, select bank0
  1800  018A  084D               	movf	(0+(?___ftmul)),w
  1801  018B  00A8               	movwf	(?___fttol)
  1802  018C  084E               	movf	(1+(?___ftmul)),w
  1803  018D  00A9               	movwf	(?___fttol+1)
  1804  018E  084F               	movf	(2+(?___ftmul)),w
  1805  018F  00AA               	movwf	(?___fttol+2)
  1806  0190  120A  118A  25DB   	fcall	___fttol
              120A  118A         
  1807  0195  1283               	bcf	status, 5	;RP0=0, select bank0
  1808  0196  1303               	bcf	status, 6	;RP1=0, select bank0
  1809  0197  0328               	decf	0+(((0+(?___fttol)))),w
  1810  0198  3AFF               	xorlw	0ffh
  1811  0199  1683               	bsf	status, 5	;RP0=1, select bank1
  1812  019A  1303               	bcf	status, 6	;RP1=0, select bank1
  1813  019B  00A4               	movwf	(??_main+0)^080h+0
  1814  019C  0833               	movf	(main@temperatura)^080h,w
  1815  019D  1283               	bcf	status, 5	;RP0=0, select bank0
  1816  019E  1303               	bcf	status, 6	;RP1=0, select bank0
  1817  019F  00E0               	movwf	0+(?___ftdiv)+03h
  1818  01A0  1683               	bsf	status, 5	;RP0=1, select bank1
  1819  01A1  1303               	bcf	status, 6	;RP1=0, select bank1
  1820  01A2  0834               	movf	(main@temperatura+1)^080h,w
  1821  01A3  1283               	bcf	status, 5	;RP0=0, select bank0
  1822  01A4  1303               	bcf	status, 6	;RP1=0, select bank0
  1823  01A5  00E1               	movwf	1+(?___ftdiv)+03h
  1824  01A6  1683               	bsf	status, 5	;RP0=1, select bank1
  1825  01A7  1303               	bcf	status, 6	;RP1=0, select bank1
  1826  01A8  0835               	movf	(main@temperatura+2)^080h,w
  1827  01A9  1283               	bcf	status, 5	;RP0=0, select bank0
  1828  01AA  1303               	bcf	status, 6	;RP1=0, select bank0
  1829  01AB  00E2               	movwf	2+(?___ftdiv)+03h
  1830  01AC  3000               	movlw	0x0
  1831  01AD  00DD               	movwf	(?___ftdiv)
  1832  01AE  3020               	movlw	0x20
  1833  01AF  00DE               	movwf	(?___ftdiv+1)
  1834  01B0  3041               	movlw	0x41
  1835  01B1  00DF               	movwf	(?___ftdiv+2)
  1836  01B2  120A  118A  2513   	fcall	___ftdiv
              120A  118A         
  1837  01B7  1283               	bcf	status, 5	;RP0=0, select bank0
  1838  01B8  1303               	bcf	status, 6	;RP1=0, select bank0
  1839  01B9  085D               	movf	(0+(?___ftdiv)),w
  1840  01BA  00A8               	movwf	(?___fttol)
  1841  01BB  085E               	movf	(1+(?___ftdiv)),w
  1842  01BC  00A9               	movwf	(?___fttol+1)
  1843  01BD  085F               	movf	(2+(?___ftdiv)),w
  1844  01BE  00AA               	movwf	(?___fttol+2)
  1845  01BF  120A  118A  25DB   	fcall	___fttol
              120A  118A         
  1846  01C4  1283               	bcf	status, 5	;RP0=0, select bank0
  1847  01C5  1303               	bcf	status, 6	;RP1=0, select bank0
  1848  01C6  0828               	movf	0+(((0+(?___fttol)))),w
  1849  01C7  1683               	bsf	status, 5	;RP0=1, select bank1
  1850  01C8  1303               	bcf	status, 6	;RP1=0, select bank1
  1851  01C9  0724               	addwf	(??_main+0)^080h+0,w
  1852  01CA  3E30               	addlw	030h
  1853  01CB  00A5               	movwf	(??_main+1)^080h+0
  1854  01CC  0825               	movf	(??_main+1)^080h+0,w
  1855  01CD  00AA               	movwf	0+(main@env)^080h+02h
  1856                           	line	60
  1857                           ;p10.c: 60: }
  1858  01CE  2A02               	goto	l713
  1859                           	line	61
  1860                           	
  1861  01CF                     l712:	
  1862                           	line	62
  1863                           	
  1864  01CF                     l5323:	
  1865                           ;p10.c: 61: else{
  1866                           ;p10.c: 62: env[2]=(unsigned char)(temperatura/10.0)+48;
  1867  01CF  1683               	bsf	status, 5	;RP0=1, select bank1
  1868  01D0  1303               	bcf	status, 6	;RP1=0, select bank1
  1869  01D1  0833               	movf	(main@temperatura)^080h,w
  1870  01D2  1283               	bcf	status, 5	;RP0=0, select bank0
  1871  01D3  1303               	bcf	status, 6	;RP1=0, select bank0
  1872  01D4  00E0               	movwf	0+(?___ftdiv)+03h
  1873  01D5  1683               	bsf	status, 5	;RP0=1, select bank1
  1874  01D6  1303               	bcf	status, 6	;RP1=0, select bank1
  1875  01D7  0834               	movf	(main@temperatura+1)^080h,w
  1876  01D8  1283               	bcf	status, 5	;RP0=0, select bank0
  1877  01D9  1303               	bcf	status, 6	;RP1=0, select bank0
  1878  01DA  00E1               	movwf	1+(?___ftdiv)+03h
  1879  01DB  1683               	bsf	status, 5	;RP0=1, select bank1
  1880  01DC  1303               	bcf	status, 6	;RP1=0, select bank1
  1881  01DD  0835               	movf	(main@temperatura+2)^080h,w
  1882  01DE  1283               	bcf	status, 5	;RP0=0, select bank0
  1883  01DF  1303               	bcf	status, 6	;RP1=0, select bank0
  1884  01E0  00E2               	movwf	2+(?___ftdiv)+03h
  1885  01E1  3000               	movlw	0x0
  1886  01E2  00DD               	movwf	(?___ftdiv)
  1887  01E3  3020               	movlw	0x20
  1888  01E4  00DE               	movwf	(?___ftdiv+1)
  1889  01E5  3041               	movlw	0x41
  1890  01E6  00DF               	movwf	(?___ftdiv+2)
  1891  01E7  120A  118A  2513   	fcall	___ftdiv
              120A  118A         
  1892  01EC  1283               	bcf	status, 5	;RP0=0, select bank0
  1893  01ED  1303               	bcf	status, 6	;RP1=0, select bank0
  1894  01EE  085D               	movf	(0+(?___ftdiv)),w
  1895  01EF  00A8               	movwf	(?___fttol)
  1896  01F0  085E               	movf	(1+(?___ftdiv)),w
  1897  01F1  00A9               	movwf	(?___fttol+1)
  1898  01F2  085F               	movf	(2+(?___ftdiv)),w
  1899  01F3  00AA               	movwf	(?___fttol+2)
  1900  01F4  120A  118A  25DB   	fcall	___fttol
              120A  118A         
  1901  01F9  1283               	bcf	status, 5	;RP0=0, select bank0
  1902  01FA  1303               	bcf	status, 6	;RP1=0, select bank0
  1903  01FB  0828               	movf	0+(((0+(?___fttol)))),w
  1904  01FC  3E30               	addlw	030h
  1905  01FD  1683               	bsf	status, 5	;RP0=1, select bank1
  1906  01FE  1303               	bcf	status, 6	;RP1=0, select bank1
  1907  01FF  00A4               	movwf	(??_main+0)^080h+0
  1908  0200  0824               	movf	(??_main+0)^080h+0,w
  1909  0201  00AA               	movwf	0+(main@env)^080h+02h
  1910                           	line	63
  1911                           	
  1912  0202                     l713:	
  1913                           	line	64
  1914                           ;p10.c: 63: }
  1915                           ;p10.c: 64: env[3]=(unsigned char)(temperatura)-((unsigned char)((temperatura/10.0))*10)
                                 +48;
  1916  0202  300A               	movlw	(0Ah)
  1917  0203  00A4               	movwf	(??_main+0)^080h+0
  1918  0204  0824               	movf	(??_main+0)^080h+0,w
  1919  0205  00F9               	movwf	(?___bmul)
  1920  0206  0833               	movf	(main@temperatura)^080h,w
  1921  0207  1283               	bcf	status, 5	;RP0=0, select bank0
  1922  0208  1303               	bcf	status, 6	;RP1=0, select bank0
  1923  0209  00E0               	movwf	0+(?___ftdiv)+03h
  1924  020A  1683               	bsf	status, 5	;RP0=1, select bank1
  1925  020B  1303               	bcf	status, 6	;RP1=0, select bank1
  1926  020C  0834               	movf	(main@temperatura+1)^080h,w
  1927  020D  1283               	bcf	status, 5	;RP0=0, select bank0
  1928  020E  1303               	bcf	status, 6	;RP1=0, select bank0
  1929  020F  00E1               	movwf	1+(?___ftdiv)+03h
  1930  0210  1683               	bsf	status, 5	;RP0=1, select bank1
  1931  0211  1303               	bcf	status, 6	;RP1=0, select bank1
  1932  0212  0835               	movf	(main@temperatura+2)^080h,w
  1933  0213  1283               	bcf	status, 5	;RP0=0, select bank0
  1934  0214  1303               	bcf	status, 6	;RP1=0, select bank0
  1935  0215  00E2               	movwf	2+(?___ftdiv)+03h
  1936  0216  3000               	movlw	0x0
  1937  0217  00DD               	movwf	(?___ftdiv)
  1938  0218  3020               	movlw	0x20
  1939  0219  00DE               	movwf	(?___ftdiv+1)
  1940  021A  3041               	movlw	0x41
  1941  021B  00DF               	movwf	(?___ftdiv+2)
  1942  021C  120A  118A  2513   	fcall	___ftdiv
              120A  118A         
  1943  0221  1283               	bcf	status, 5	;RP0=0, select bank0
  1944  0222  1303               	bcf	status, 6	;RP1=0, select bank0
  1945  0223  085D               	movf	(0+(?___ftdiv)),w
  1946  0224  00A8               	movwf	(?___fttol)
  1947  0225  085E               	movf	(1+(?___ftdiv)),w
  1948  0226  00A9               	movwf	(?___fttol+1)
  1949  0227  085F               	movf	(2+(?___ftdiv)),w
  1950  0228  00AA               	movwf	(?___fttol+2)
  1951  0229  120A  118A  25DB   	fcall	___fttol
              120A  118A         
  1952  022E  1283               	bcf	status, 5	;RP0=0, select bank0
  1953  022F  1303               	bcf	status, 6	;RP1=0, select bank0
  1954  0230  0828               	movf	0+(((0+(?___fttol)))),w
  1955  0231  120A  158A  25F4   	fcall	___bmul
              120A  118A         
  1956  0236  3AFF               	xorlw	0ffh
  1957  0237  3E01               	addlw	1
  1958  0238  1683               	bsf	status, 5	;RP0=1, select bank1
  1959  0239  1303               	bcf	status, 6	;RP1=0, select bank1
  1960  023A  00A5               	movwf	(??_main+1)^080h+0
  1961  023B  0833               	movf	(main@temperatura)^080h,w
  1962  023C  1283               	bcf	status, 5	;RP0=0, select bank0
  1963  023D  1303               	bcf	status, 6	;RP1=0, select bank0
  1964  023E  00A8               	movwf	(?___fttol)
  1965  023F  1683               	bsf	status, 5	;RP0=1, select bank1
  1966  0240  1303               	bcf	status, 6	;RP1=0, select bank1
  1967  0241  0834               	movf	(main@temperatura+1)^080h,w
  1968  0242  1283               	bcf	status, 5	;RP0=0, select bank0
  1969  0243  1303               	bcf	status, 6	;RP1=0, select bank0
  1970  0244  00A9               	movwf	(?___fttol+1)
  1971  0245  1683               	bsf	status, 5	;RP0=1, select bank1
  1972  0246  1303               	bcf	status, 6	;RP1=0, select bank1
  1973  0247  0835               	movf	(main@temperatura+2)^080h,w
  1974  0248  1283               	bcf	status, 5	;RP0=0, select bank0
  1975  0249  1303               	bcf	status, 6	;RP1=0, select bank0
  1976  024A  00AA               	movwf	(?___fttol+2)
  1977  024B  120A  118A  25DB   	fcall	___fttol
              120A  118A         
  1978  0250  1283               	bcf	status, 5	;RP0=0, select bank0
  1979  0251  1303               	bcf	status, 6	;RP1=0, select bank0
  1980  0252  0828               	movf	0+(((0+(?___fttol)))),w
  1981  0253  1683               	bsf	status, 5	;RP0=1, select bank1
  1982  0254  1303               	bcf	status, 6	;RP1=0, select bank1
  1983  0255  0725               	addwf	(??_main+1)^080h+0,w
  1984  0256  3E30               	addlw	030h
  1985  0257  00A6               	movwf	(??_main+2)^080h+0
  1986  0258  0826               	movf	(??_main+2)^080h+0,w
  1987  0259  00AB               	movwf	0+(main@env)^080h+03h
  1988                           	line	65
  1989                           	
  1990  025A                     l5325:	
  1991                           ;p10.c: 65: env[4]='.';
  1992  025A  302E               	movlw	(02Eh)
  1993  025B  00A4               	movwf	(??_main+0)^080h+0
  1994  025C  0824               	movf	(??_main+0)^080h+0,w
  1995  025D  00AC               	movwf	0+(main@env)^080h+04h
  1996                           	line	66
  1997                           	
  1998  025E                     l5327:	
  1999                           ;p10.c: 66: env[5]=(unsigned char)((temperatura-(float)((unsigned char)(temperatura)))*1
                                 0.0)+48;
  2000  025E  0833               	movf	(main@temperatura)^080h,w
  2001  025F  1283               	bcf	status, 5	;RP0=0, select bank0
  2002  0260  1303               	bcf	status, 6	;RP1=0, select bank0
  2003  0261  00A8               	movwf	(?___fttol)
  2004  0262  1683               	bsf	status, 5	;RP0=1, select bank1
  2005  0263  1303               	bcf	status, 6	;RP1=0, select bank1
  2006  0264  0834               	movf	(main@temperatura+1)^080h,w
  2007  0265  1283               	bcf	status, 5	;RP0=0, select bank0
  2008  0266  1303               	bcf	status, 6	;RP1=0, select bank0
  2009  0267  00A9               	movwf	(?___fttol+1)
  2010  0268  1683               	bsf	status, 5	;RP0=1, select bank1
  2011  0269  1303               	bcf	status, 6	;RP1=0, select bank1
  2012  026A  0835               	movf	(main@temperatura+2)^080h,w
  2013  026B  1283               	bcf	status, 5	;RP0=0, select bank0
  2014  026C  1303               	bcf	status, 6	;RP1=0, select bank0
  2015  026D  00AA               	movwf	(?___fttol+2)
  2016  026E  120A  118A  25DB   	fcall	___fttol
              120A  118A         
  2017  0273  1283               	bcf	status, 5	;RP0=0, select bank0
  2018  0274  1303               	bcf	status, 6	;RP1=0, select bank0
  2019  0275  0828               	movf	0+(((0+(?___fttol)))),w
  2020  0276  120A  158A  2629   	fcall	___lbtoft
              120A  118A         
  2021  027B  1283               	bcf	status, 5	;RP0=0, select bank0
  2022  027C  1303               	bcf	status, 6	;RP1=0, select bank0
  2023  027D  0839               	movf	(0+(?___lbtoft)),w
  2024  027E  00B6               	movwf	(?___ftneg)
  2025  027F  083A               	movf	(1+(?___lbtoft)),w
  2026  0280  00B7               	movwf	(?___ftneg+1)
  2027  0281  083B               	movf	(2+(?___lbtoft)),w
  2028  0282  00B8               	movwf	(?___ftneg+2)
  2029  0283  120A  158A  2595   	fcall	___ftneg
              120A  118A         
  2030  0288  1283               	bcf	status, 5	;RP0=0, select bank0
  2031  0289  1303               	bcf	status, 6	;RP1=0, select bank0
  2032  028A  0836               	movf	(0+(?___ftneg)),w
  2033  028B  00C3               	movwf	0+(?___ftadd)+03h
  2034  028C  0837               	movf	(1+(?___ftneg)),w
  2035  028D  00C4               	movwf	1+(?___ftadd)+03h
  2036  028E  0838               	movf	(2+(?___ftneg)),w
  2037  028F  00C5               	movwf	2+(?___ftadd)+03h
  2038  0290  1683               	bsf	status, 5	;RP0=1, select bank1
  2039  0291  1303               	bcf	status, 6	;RP1=0, select bank1
  2040  0292  0833               	movf	(main@temperatura)^080h,w
  2041  0293  1283               	bcf	status, 5	;RP0=0, select bank0
  2042  0294  1303               	bcf	status, 6	;RP1=0, select bank0
  2043  0295  00C0               	movwf	(?___ftadd)
  2044  0296  1683               	bsf	status, 5	;RP0=1, select bank1
  2045  0297  1303               	bcf	status, 6	;RP1=0, select bank1
  2046  0298  0834               	movf	(main@temperatura+1)^080h,w
  2047  0299  1283               	bcf	status, 5	;RP0=0, select bank0
  2048  029A  1303               	bcf	status, 6	;RP1=0, select bank0
  2049  029B  00C1               	movwf	(?___ftadd+1)
  2050  029C  1683               	bsf	status, 5	;RP0=1, select bank1
  2051  029D  1303               	bcf	status, 6	;RP1=0, select bank1
  2052  029E  0835               	movf	(main@temperatura+2)^080h,w
  2053  029F  1283               	bcf	status, 5	;RP0=0, select bank0
  2054  02A0  1303               	bcf	status, 6	;RP1=0, select bank0
  2055  02A1  00C2               	movwf	(?___ftadd+2)
  2056  02A2  120A  118A  22DF   	fcall	___ftadd
              120A  118A         
  2057  02A7  1283               	bcf	status, 5	;RP0=0, select bank0
  2058  02A8  1303               	bcf	status, 6	;RP1=0, select bank0
  2059  02A9  0840               	movf	(0+(?___ftadd)),w
  2060  02AA  00D0               	movwf	0+(?___ftmul)+03h
  2061  02AB  0841               	movf	(1+(?___ftadd)),w
  2062  02AC  00D1               	movwf	1+(?___ftmul)+03h
  2063  02AD  0842               	movf	(2+(?___ftadd)),w
  2064  02AE  00D2               	movwf	2+(?___ftmul)+03h
  2065  02AF  3000               	movlw	0x0
  2066  02B0  00CD               	movwf	(?___ftmul)
  2067  02B1  3020               	movlw	0x20
  2068  02B2  00CE               	movwf	(?___ftmul+1)
  2069  02B3  3041               	movlw	0x41
  2070  02B4  00CF               	movwf	(?___ftmul+2)
  2071  02B5  120A  118A  2425   	fcall	___ftmul
              120A  118A         
  2072  02BA  1283               	bcf	status, 5	;RP0=0, select bank0
  2073  02BB  1303               	bcf	status, 6	;RP1=0, select bank0
  2074  02BC  084D               	movf	(0+(?___ftmul)),w
  2075  02BD  00A8               	movwf	(?___fttol)
  2076  02BE  084E               	movf	(1+(?___ftmul)),w
  2077  02BF  00A9               	movwf	(?___fttol+1)
  2078  02C0  084F               	movf	(2+(?___ftmul)),w
  2079  02C1  00AA               	movwf	(?___fttol+2)
  2080  02C2  120A  118A  25DB   	fcall	___fttol
              120A  118A         
  2081  02C7  1283               	bcf	status, 5	;RP0=0, select bank0
  2082  02C8  1303               	bcf	status, 6	;RP1=0, select bank0
  2083  02C9  0828               	movf	0+(((0+(?___fttol)))),w
  2084  02CA  3E30               	addlw	030h
  2085  02CB  1683               	bsf	status, 5	;RP0=1, select bank1
  2086  02CC  1303               	bcf	status, 6	;RP1=0, select bank1
  2087  02CD  00A4               	movwf	(??_main+0)^080h+0
  2088  02CE  0824               	movf	(??_main+0)^080h+0,w
  2089  02CF  00AD               	movwf	0+(main@env)^080h+05h
  2090                           	line	68
  2091                           	
  2092  02D0                     l5329:	
  2093                           ;p10.c: 68: RS232Tx(&env[0], 7);
  2094  02D0  3007               	movlw	(07h)
  2095  02D1  00A4               	movwf	(??_main+0)^080h+0
  2096  02D2  0824               	movf	(??_main+0)^080h+0,w
  2097  02D3  00F4               	movwf	(?_RS232Tx)
  2098  02D4  30A8               	movlw	(main@env)&0ffh
  2099  02D5  120A  118A  27C5   	fcall	_RS232Tx
              120A  118A         
  2100  02DA  2855               	goto	l5291
  2101                           	line	69
  2102                           	
  2103  02DB                     l714:	
  2104                           	line	28
  2105  02DB  2855               	goto	l5291
  2106                           	
  2107  02DC                     l715:	
  2108                           	line	71
  2109                           	
  2110  02DC                     l716:	
  2111                           	global	start
  2112  02DC  120A  118A  2812   	ljmp	start
  2113                           	opt stack 0
  2114                           GLOBAL	__end_of_main
  2115  02DF                     	__end_of_main:
  2116 ;; =============== function _main ends ============
  2117                           
  2118                           	signat	_main,88
  2119                           	global	_convert_temp
  2120                           psect	text471,local,class=CODE,delta=2
  2121                           global __ptext471
  2122  0725                     __ptext471:
  2123                           
  2124 ;; *************** function _convert_temp *****************
  2125 ;; Defined at:
  2126 ;;		line 218 in file "C:\Users\Ricardo\Mestrado\TAC\trab10\SPI.c"
  2127 ;; Parameters:    Size  Location     Type
  2128 ;;  num             2   61[BANK0 ] unsigned int 
  2129 ;; Auto vars:     Size  Location     Type
  2130 ;;  temp            3   72[BANK0 ] float 
  2131 ;;  value           2   75[BANK0 ] unsigned int 
  2132 ;;  tmp_3           2   70[BANK0 ] unsigned int 
  2133 ;;  tmp_2           2   68[BANK0 ] unsigned int 
  2134 ;;  tmp             2   66[BANK0 ] unsigned int 
  2135 ;; Return value:  Size  Location     Type
  2136 ;;                  3   61[BANK0 ] float 
  2137 ;; Registers used:
  2138 ;;		wreg, status,2, status,0, pclath, cstack
  2139 ;; Tracked objects:
  2140 ;;		On entry : 0/0
  2141 ;;		On exit  : 0/0
  2142 ;;		Unchanged: 0/0
  2143 ;; Data sizes:     COMMON   BANK0   BANK1   BANK3   BANK2
  2144 ;;      Params:         0       3       0       0       0
  2145 ;;      Locals:         0      11       0       0       0
  2146 ;;      Temps:          0       2       0       0       0
  2147 ;;      Totals:         0      16       0       0       0
  2148 ;;Total ram usage:       16 bytes
  2149 ;; Hardware stack levels used:    1
  2150 ;; Hardware stack levels required when called:    3
  2151 ;; This function calls:
  2152 ;;		___lwtoft
  2153 ;;		___ftmul
  2154 ;; This function is called by:
  2155 ;;		_main
  2156 ;; This function uses a non-reentrant model
  2157 ;;
  2158                           psect	text471
  2159                           	file	"C:\Users\Ricardo\Mestrado\TAC\trab10\SPI.c"
  2160                           	line	218
  2161                           	global	__size_of_convert_temp
  2162  00A0                     	__size_of_convert_temp	equ	__end_of_convert_temp-_convert_temp
  2163                           	
  2164  0725                     _convert_temp:	
  2165                           	opt	stack 4
  2166                           ; Regs used in _convert_temp: [wreg+status,2+status,0+pclath+cstack]
  2167                           	line	221
  2168                           	
  2169  0725                     l5259:	
  2170                           ;SPI.c: 221: unsigned int tmp = 0b1000000000000000;
  2171  0725  3000               	movlw	low(08000h)
  2172  0726  1283               	bcf	status, 5	;RP0=0, select bank0
  2173  0727  1303               	bcf	status, 6	;RP1=0, select bank0
  2174  0728  00E2               	movwf	(convert_temp@tmp)
  2175  0729  3080               	movlw	high(08000h)
  2176  072A  00E3               	movwf	((convert_temp@tmp))+1
  2177                           	line	222
  2178                           ;SPI.c: 222: unsigned int tmp_2=0b0111111111111111;
  2179  072B  30FF               	movlw	low(07FFFh)
  2180  072C  00E4               	movwf	(convert_temp@tmp_2)
  2181  072D  307F               	movlw	high(07FFFh)
  2182  072E  00E5               	movwf	((convert_temp@tmp_2))+1
  2183                           	line	223
  2184                           ;SPI.c: 223: unsigned int tmp_3 = tmp & num;
  2185  072F  085D               	movf	(convert_temp@num),w
  2186  0730  0562               	andwf	(convert_temp@tmp),w
  2187  0731  00E6               	movwf	(convert_temp@tmp_3)
  2188  0732  085E               	movf	(convert_temp@num+1),w
  2189  0733  0563               	andwf	(convert_temp@tmp+1),w
  2190  0734  00E7               	movwf	1+(convert_temp@tmp_3)
  2191                           	line	225
  2192                           ;SPI.c: 225: unsigned int value = num & tmp_2;
  2193  0735  0864               	movf	(convert_temp@tmp_2),w
  2194  0736  055D               	andwf	(convert_temp@num),w
  2195  0737  00EB               	movwf	(convert_temp@value)
  2196  0738  0865               	movf	(convert_temp@tmp_2+1),w
  2197  0739  055E               	andwf	(convert_temp@num+1),w
  2198  073A  00EC               	movwf	1+(convert_temp@value)
  2199                           	line	229
  2200                           	
  2201  073B                     l5261:	
  2202                           ;SPI.c: 227: float temp;
  2203                           ;SPI.c: 229: if(tmp_3 == 0){
  2204  073B  0867               	movf	((convert_temp@tmp_3+1)),w
  2205  073C  0466               	iorwf	((convert_temp@tmp_3)),w
  2206  073D  1D03               	skipz
  2207  073E  2F40               	goto	u3441
  2208  073F  2F41               	goto	u3440
  2209  0740                     u3441:
  2210  0740  2F77               	goto	l5267
  2211  0741                     u3440:
  2212                           	line	230
  2213                           	
  2214  0741                     l5263:	
  2215                           ;SPI.c: 230: value = num >> 3;
  2216  0741  085E               	movf	(convert_temp@num+1),w
  2217  0742  00E1               	movwf	(??_convert_temp+0)+0+1
  2218  0743  085D               	movf	(convert_temp@num),w
  2219  0744  00E0               	movwf	(??_convert_temp+0)+0
  2220  0745  3003               	movlw	03h
  2221  0746                     u3455:
  2222  0746  1003               	clrc
  2223  0747  0CE1               	rrf	(??_convert_temp+0)+1,f
  2224  0748  0CE0               	rrf	(??_convert_temp+0)+0,f
  2225  0749  3EFF               	addlw	-1
  2226  074A  1D03               	skipz
  2227  074B  2F46               	goto	u3455
  2228  074C  0860               	movf	0+(??_convert_temp+0)+0,w
  2229  074D  00EB               	movwf	(convert_temp@value)
  2230  074E  0861               	movf	1+(??_convert_temp+0)+0,w
  2231  074F  00EC               	movwf	(convert_temp@value+1)
  2232                           	line	231
  2233                           	
  2234  0750                     l5265:	
  2235                           ;SPI.c: 231: temp = (double)value * 0.0625;
  2236  0750  3000               	movlw	0x0
  2237  0751  00CD               	movwf	(?___ftmul)
  2238  0752  3080               	movlw	0x80
  2239  0753  00CE               	movwf	(?___ftmul+1)
  2240  0754  303D               	movlw	0x3d
  2241  0755  00CF               	movwf	(?___ftmul+2)
  2242  0756  086C               	movf	(convert_temp@value+1),w
  2243  0757  01B7               	clrf	(?___lwtoft+1)
  2244  0758  07B7               	addwf	(?___lwtoft+1)
  2245  0759  086B               	movf	(convert_temp@value),w
  2246  075A  01B6               	clrf	(?___lwtoft)
  2247  075B  07B6               	addwf	(?___lwtoft)
  2248                           
  2249  075C  120A  158A  260E   	fcall	___lwtoft
              120A  118A         
  2250  0761  1283               	bcf	status, 5	;RP0=0, select bank0
  2251  0762  1303               	bcf	status, 6	;RP1=0, select bank0
  2252  0763  0836               	movf	(0+(?___lwtoft)),w
  2253  0764  00D0               	movwf	0+(?___ftmul)+03h
  2254  0765  0837               	movf	(1+(?___lwtoft)),w
  2255  0766  00D1               	movwf	1+(?___ftmul)+03h
  2256  0767  0838               	movf	(2+(?___lwtoft)),w
  2257  0768  00D2               	movwf	2+(?___ftmul)+03h
  2258  0769  120A  118A  2425   	fcall	___ftmul
              120A  118A         
  2259  076E  1283               	bcf	status, 5	;RP0=0, select bank0
  2260  076F  1303               	bcf	status, 6	;RP1=0, select bank0
  2261  0770  084D               	movf	(0+(?___ftmul)),w
  2262  0771  00E8               	movwf	(convert_temp@temp)
  2263  0772  084E               	movf	(1+(?___ftmul)),w
  2264  0773  00E9               	movwf	(convert_temp@temp+1)
  2265  0774  084F               	movf	(2+(?___ftmul)),w
  2266  0775  00EA               	movwf	(convert_temp@temp+2)
  2267                           	line	232
  2268                           ;SPI.c: 232: }else{
  2269  0776  2FBD               	goto	l5273
  2270                           	
  2271  0777                     l1468:	
  2272                           	line	234
  2273                           	
  2274  0777                     l5267:	
  2275                           ;SPI.c: 234: value=num;
  2276  0777  085E               	movf	(convert_temp@num+1),w
  2277  0778  01EC               	clrf	(convert_temp@value+1)
  2278  0779  07EC               	addwf	(convert_temp@value+1)
  2279  077A  085D               	movf	(convert_temp@num),w
  2280  077B  01EB               	clrf	(convert_temp@value)
  2281  077C  07EB               	addwf	(convert_temp@value)
  2282                           
  2283                           	line	235
  2284                           	
  2285  077D                     l5269:	
  2286                           ;SPI.c: 235: value = ~value;
  2287  077D  09EB               	comf	(convert_temp@value),f
  2288  077E  09EC               	comf	(convert_temp@value+1),f
  2289                           	line	236
  2290                           ;SPI.c: 236: value = value >> 3;
  2291  077F  086C               	movf	(convert_temp@value+1),w
  2292  0780  00E1               	movwf	(??_convert_temp+0)+0+1
  2293  0781  086B               	movf	(convert_temp@value),w
  2294  0782  00E0               	movwf	(??_convert_temp+0)+0
  2295  0783  3003               	movlw	03h
  2296  0784                     u3465:
  2297  0784  1003               	clrc
  2298  0785  0CE1               	rrf	(??_convert_temp+0)+1,f
  2299  0786  0CE0               	rrf	(??_convert_temp+0)+0,f
  2300  0787  3EFF               	addlw	-1
  2301  0788  1D03               	skipz
  2302  0789  2F84               	goto	u3465
  2303  078A  0860               	movf	0+(??_convert_temp+0)+0,w
  2304  078B  00EB               	movwf	(convert_temp@value)
  2305  078C  0861               	movf	1+(??_convert_temp+0)+0,w
  2306  078D  00EC               	movwf	(convert_temp@value+1)
  2307                           	line	237
  2308                           ;SPI.c: 237: value = value + 1;
  2309  078E  086B               	movf	(convert_temp@value),w
  2310  078F  3E01               	addlw	low(01h)
  2311  0790  00EB               	movwf	(convert_temp@value)
  2312  0791  086C               	movf	(convert_temp@value+1),w
  2313  0792  1803               	skipnc
  2314  0793  3E01               	addlw	1
  2315  0794  3E00               	addlw	high(01h)
  2316  0795  00EC               	movwf	1+(convert_temp@value)
  2317                           	line	238
  2318                           	
  2319  0796                     l5271:	
  2320                           ;SPI.c: 238: temp = (double)value * (-0.0625);
  2321  0796  3000               	movlw	0x0
  2322  0797  00CD               	movwf	(?___ftmul)
  2323  0798  3080               	movlw	0x80
  2324  0799  00CE               	movwf	(?___ftmul+1)
  2325  079A  30BD               	movlw	0xbd
  2326  079B  00CF               	movwf	(?___ftmul+2)
  2327  079C  086C               	movf	(convert_temp@value+1),w
  2328  079D  01B7               	clrf	(?___lwtoft+1)
  2329  079E  07B7               	addwf	(?___lwtoft+1)
  2330  079F  086B               	movf	(convert_temp@value),w
  2331  07A0  01B6               	clrf	(?___lwtoft)
  2332  07A1  07B6               	addwf	(?___lwtoft)
  2333                           
  2334  07A2  120A  158A  260E   	fcall	___lwtoft
              120A  118A         
  2335  07A7  1283               	bcf	status, 5	;RP0=0, select bank0
  2336  07A8  1303               	bcf	status, 6	;RP1=0, select bank0
  2337  07A9  0836               	movf	(0+(?___lwtoft)),w
  2338  07AA  00D0               	movwf	0+(?___ftmul)+03h
  2339  07AB  0837               	movf	(1+(?___lwtoft)),w
  2340  07AC  00D1               	movwf	1+(?___ftmul)+03h
  2341  07AD  0838               	movf	(2+(?___lwtoft)),w
  2342  07AE  00D2               	movwf	2+(?___ftmul)+03h
  2343  07AF  120A  118A  2425   	fcall	___ftmul
              120A  118A         
  2344  07B4  1283               	bcf	status, 5	;RP0=0, select bank0
  2345  07B5  1303               	bcf	status, 6	;RP1=0, select bank0
  2346  07B6  084D               	movf	(0+(?___ftmul)),w
  2347  07B7  00E8               	movwf	(convert_temp@temp)
  2348  07B8  084E               	movf	(1+(?___ftmul)),w
  2349  07B9  00E9               	movwf	(convert_temp@temp+1)
  2350  07BA  084F               	movf	(2+(?___ftmul)),w
  2351  07BB  00EA               	movwf	(convert_temp@temp+2)
  2352  07BC  2FBD               	goto	l5273
  2353                           	line	239
  2354                           	
  2355  07BD                     l1469:	
  2356                           	line	240
  2357                           	
  2358  07BD                     l5273:	
  2359                           ;SPI.c: 239: }
  2360                           ;SPI.c: 240: return temp;
  2361  07BD  0868               	movf	(convert_temp@temp),w
  2362  07BE  00DD               	movwf	(?_convert_temp)
  2363  07BF  0869               	movf	(convert_temp@temp+1),w
  2364  07C0  00DE               	movwf	(?_convert_temp+1)
  2365  07C1  086A               	movf	(convert_temp@temp+2),w
  2366  07C2  00DF               	movwf	(?_convert_temp+2)
  2367  07C3  2FC4               	goto	l1470
  2368                           	
  2369  07C4                     l5275:	
  2370                           	line	241
  2371                           	
  2372  07C4                     l1470:	
  2373  07C4  0008               	return
  2374                           	opt stack 0
  2375                           GLOBAL	__end_of_convert_temp
  2376  07C5                     	__end_of_convert_temp:
  2377 ;; =============== function _convert_temp ends ============
  2378                           
  2379                           	signat	_convert_temp,4219
  2380                           	global	_Rs232Conf
  2381                           psect	text472,local,class=CODE,delta=2
  2382                           global __ptext472
  2383  0681                     __ptext472:
  2384                           
  2385 ;; *************** function _Rs232Conf *****************
  2386 ;; Defined at:
  2387 ;;		line 5 in file "C:\Users\Ricardo\Mestrado\TAC\trab10\Rs232.c"
  2388 ;; Parameters:    Size  Location     Type
  2389 ;;  m               2    0[BANK1 ] unsigned int 
  2390 ;;  fosc            2    2[BANK1 ] unsigned int 
  2391 ;; Auto vars:     Size  Location     Type
  2392 ;;		None
  2393 ;; Return value:  Size  Location     Type
  2394 ;;		None               void
  2395 ;; Registers used:
  2396 ;;		wreg, status,2, status,0, pclath, cstack
  2397 ;; Tracked objects:
  2398 ;;		On entry : 0/0
  2399 ;;		On exit  : 0/0
  2400 ;;		Unchanged: 0/0
  2401 ;; Data sizes:     COMMON   BANK0   BANK1   BANK3   BANK2
  2402 ;;      Params:         0       0       4       0       0
  2403 ;;      Locals:         0       0       0       0       0
  2404 ;;      Temps:          0       0       0       0       0
  2405 ;;      Totals:         0       0       4       0       0
  2406 ;;Total ram usage:        4 bytes
  2407 ;; Hardware stack levels used:    1
  2408 ;; Hardware stack levels required when called:    3
  2409 ;; This function calls:
  2410 ;;		___lmul
  2411 ;;		___altoft
  2412 ;;		___lwtoft
  2413 ;;		___ftadd
  2414 ;;		___ftmul
  2415 ;;		___ftdiv
  2416 ;;		___fttol
  2417 ;; This function is called by:
  2418 ;;		_main
  2419 ;; This function uses a non-reentrant model
  2420 ;;
  2421                           psect	text472
  2422                           	file	"C:\Users\Ricardo\Mestrado\TAC\trab10\Rs232.c"
  2423                           	line	5
  2424                           	global	__size_of_Rs232Conf
  2425  00A4                     	__size_of_Rs232Conf	equ	__end_of_Rs232Conf-_Rs232Conf
  2426                           	
  2427  0681                     _Rs232Conf:	
  2428                           	opt	stack 4
  2429                           ; Regs used in _Rs232Conf: [wreg+status,2+status,0+pclath+cstack]
  2430                           	line	6
  2431                           	
  2432  0681                     l5235:	
  2433                           ;Rs232.c: 6: f=fosc;
  2434  0681  1683               	bsf	status, 5	;RP0=1, select bank1
  2435  0682  1303               	bcf	status, 6	;RP1=0, select bank1
  2436  0683  0823               	movf	(Rs232Conf@fosc+1)^080h,w
  2437  0684  01BE               	clrf	(_f+1)^080h
  2438  0685  07BE               	addwf	(_f+1)^080h
  2439  0686  0822               	movf	(Rs232Conf@fosc)^080h,w
  2440  0687  01BD               	clrf	(_f)^080h
  2441  0688  07BD               	addwf	(_f)^080h
  2442                           
  2443                           	line	8
  2444                           	
  2445  0689                     l5237:	
  2446                           ;Rs232.c: 8: SYNC=0;
  2447  0689  1218               	bcf	(1220/8)^080h,(1220)&7
  2448                           	line	9
  2449                           	
  2450  068A                     l5239:	
  2451                           ;Rs232.c: 9: BRGH=1;
  2452  068A  1518               	bsf	(1218/8)^080h,(1218)&7
  2453                           	line	10
  2454                           	
  2455  068B                     l5241:	
  2456                           ;Rs232.c: 10: SPBRG=(char)(((float)(fosc*1000000)/((float)16*((float)m+(float)1))));
  2457  068B  3000               	movlw	0
  2458  068C  1283               	bcf	status, 5	;RP0=0, select bank0
  2459  068D  1303               	bcf	status, 6	;RP1=0, select bank0
  2460  068E  00A7               	movwf	3+(?___lmul)+04h
  2461  068F  300F               	movlw	0Fh
  2462  0690  00A6               	movwf	2+(?___lmul)+04h
  2463  0691  3042               	movlw	042h
  2464  0692  00A5               	movwf	1+(?___lmul)+04h
  2465  0693  3040               	movlw	040h
  2466  0694  00A4               	movwf	0+(?___lmul)+04h
  2467                           
  2468  0695  1683               	bsf	status, 5	;RP0=1, select bank1
  2469  0696  1303               	bcf	status, 6	;RP1=0, select bank1
  2470  0697  0822               	movf	(Rs232Conf@fosc)^080h,w
  2471  0698  1283               	bcf	status, 5	;RP0=0, select bank0
  2472  0699  1303               	bcf	status, 6	;RP1=0, select bank0
  2473  069A  00A0               	movwf	(?___lmul)
  2474  069B  1683               	bsf	status, 5	;RP0=1, select bank1
  2475  069C  1303               	bcf	status, 6	;RP1=0, select bank1
  2476  069D  0823               	movf	(Rs232Conf@fosc+1)^080h,w
  2477  069E  1283               	bcf	status, 5	;RP0=0, select bank0
  2478  069F  1303               	bcf	status, 6	;RP1=0, select bank0
  2479  06A0  00A1               	movwf	((?___lmul))+1
  2480  06A1  01A2               	clrf	2+((?___lmul))
  2481  06A2  01A3               	clrf	3+((?___lmul))
  2482  06A3  120A  158A  2676   	fcall	___lmul
              120A  118A         
  2483  06A8  1283               	bcf	status, 5	;RP0=0, select bank0
  2484  06A9  1303               	bcf	status, 6	;RP1=0, select bank0
  2485  06AA  0823               	movf	(3+(?___lmul)),w
  2486  06AB  00B9               	movwf	(?___altoft+3)
  2487  06AC  0822               	movf	(2+(?___lmul)),w
  2488  06AD  00B8               	movwf	(?___altoft+2)
  2489  06AE  0821               	movf	(1+(?___lmul)),w
  2490  06AF  00B7               	movwf	(?___altoft+1)
  2491  06B0  0820               	movf	(0+(?___lmul)),w
  2492  06B1  00B6               	movwf	(?___altoft)
  2493                           
  2494  06B2  120A  158A  26C2   	fcall	___altoft
              120A  118A         
  2495  06B7  1283               	bcf	status, 5	;RP0=0, select bank0
  2496  06B8  1303               	bcf	status, 6	;RP1=0, select bank0
  2497  06B9  0836               	movf	(0+(?___altoft)),w
  2498  06BA  00E0               	movwf	0+(?___ftdiv)+03h
  2499  06BB  0837               	movf	(1+(?___altoft)),w
  2500  06BC  00E1               	movwf	1+(?___ftdiv)+03h
  2501  06BD  0838               	movf	(2+(?___altoft)),w
  2502  06BE  00E2               	movwf	2+(?___ftdiv)+03h
  2503  06BF  1683               	bsf	status, 5	;RP0=1, select bank1
  2504  06C0  1303               	bcf	status, 6	;RP1=0, select bank1
  2505  06C1  0821               	movf	(Rs232Conf@m+1)^080h,w
  2506  06C2  1283               	bcf	status, 5	;RP0=0, select bank0
  2507  06C3  1303               	bcf	status, 6	;RP1=0, select bank0
  2508  06C4  01B7               	clrf	(?___lwtoft+1)
  2509  06C5  07B7               	addwf	(?___lwtoft+1)
  2510  06C6  1683               	bsf	status, 5	;RP0=1, select bank1
  2511  06C7  1303               	bcf	status, 6	;RP1=0, select bank1
  2512  06C8  0820               	movf	(Rs232Conf@m)^080h,w
  2513  06C9  1283               	bcf	status, 5	;RP0=0, select bank0
  2514  06CA  1303               	bcf	status, 6	;RP1=0, select bank0
  2515  06CB  01B6               	clrf	(?___lwtoft)
  2516  06CC  07B6               	addwf	(?___lwtoft)
  2517                           
  2518  06CD  120A  158A  260E   	fcall	___lwtoft
              120A  118A         
  2519  06D2  1283               	bcf	status, 5	;RP0=0, select bank0
  2520  06D3  1303               	bcf	status, 6	;RP1=0, select bank0
  2521  06D4  0836               	movf	(0+(?___lwtoft)),w
  2522  06D5  00C3               	movwf	0+(?___ftadd)+03h
  2523  06D6  0837               	movf	(1+(?___lwtoft)),w
  2524  06D7  00C4               	movwf	1+(?___ftadd)+03h
  2525  06D8  0838               	movf	(2+(?___lwtoft)),w
  2526  06D9  00C5               	movwf	2+(?___ftadd)+03h
  2527  06DA  3000               	movlw	0x0
  2528  06DB  00C0               	movwf	(?___ftadd)
  2529  06DC  3080               	movlw	0x80
  2530  06DD  00C1               	movwf	(?___ftadd+1)
  2531  06DE  303F               	movlw	0x3f
  2532  06DF  00C2               	movwf	(?___ftadd+2)
  2533  06E0  120A  118A  22DF   	fcall	___ftadd
              120A  118A         
  2534  06E5  1283               	bcf	status, 5	;RP0=0, select bank0
  2535  06E6  1303               	bcf	status, 6	;RP1=0, select bank0
  2536  06E7  0840               	movf	(0+(?___ftadd)),w
  2537  06E8  00D0               	movwf	0+(?___ftmul)+03h
  2538  06E9  0841               	movf	(1+(?___ftadd)),w
  2539  06EA  00D1               	movwf	1+(?___ftmul)+03h
  2540  06EB  0842               	movf	(2+(?___ftadd)),w
  2541  06EC  00D2               	movwf	2+(?___ftmul)+03h
  2542  06ED  3000               	movlw	0x0
  2543  06EE  00CD               	movwf	(?___ftmul)
  2544  06EF  3080               	movlw	0x80
  2545  06F0  00CE               	movwf	(?___ftmul+1)
  2546  06F1  3041               	movlw	0x41
  2547  06F2  00CF               	movwf	(?___ftmul+2)
  2548  06F3  120A  118A  2425   	fcall	___ftmul
              120A  118A         
  2549  06F8  1283               	bcf	status, 5	;RP0=0, select bank0
  2550  06F9  1303               	bcf	status, 6	;RP1=0, select bank0
  2551  06FA  084D               	movf	(0+(?___ftmul)),w
  2552  06FB  00DD               	movwf	(?___ftdiv)
  2553  06FC  084E               	movf	(1+(?___ftmul)),w
  2554  06FD  00DE               	movwf	(?___ftdiv+1)
  2555  06FE  084F               	movf	(2+(?___ftmul)),w
  2556  06FF  00DF               	movwf	(?___ftdiv+2)
  2557  0700  120A  118A  2513   	fcall	___ftdiv
              120A  118A         
  2558  0705  1283               	bcf	status, 5	;RP0=0, select bank0
  2559  0706  1303               	bcf	status, 6	;RP1=0, select bank0
  2560  0707  085D               	movf	(0+(?___ftdiv)),w
  2561  0708  00A8               	movwf	(?___fttol)
  2562  0709  085E               	movf	(1+(?___ftdiv)),w
  2563  070A  00A9               	movwf	(?___fttol+1)
  2564  070B  085F               	movf	(2+(?___ftdiv)),w
  2565  070C  00AA               	movwf	(?___fttol+2)
  2566  070D  120A  118A  25DB   	fcall	___fttol
              120A  118A         
  2567  0712  1283               	bcf	status, 5	;RP0=0, select bank0
  2568  0713  1303               	bcf	status, 6	;RP1=0, select bank0
  2569  0714  0828               	movf	0+(((0+(?___fttol)))),w
  2570  0715  1683               	bsf	status, 5	;RP0=1, select bank1
  2571  0716  1303               	bcf	status, 6	;RP1=0, select bank1
  2572  0717  0099               	movwf	(153)^080h	;volatile
  2573                           	line	15
  2574                           	
  2575  0718                     l5243:	
  2576                           ;Rs232.c: 15: TXEN=1;
  2577  0718  1698               	bsf	(1221/8)^080h,(1221)&7
  2578                           	line	16
  2579                           	
  2580  0719                     l5245:	
  2581                           ;Rs232.c: 16: CREN=1;
  2582  0719  1283               	bcf	status, 5	;RP0=0, select bank0
  2583  071A  1303               	bcf	status, 6	;RP1=0, select bank0
  2584  071B  1618               	bsf	(196/8),(196)&7
  2585                           	line	17
  2586                           	
  2587  071C                     l5247:	
  2588                           ;Rs232.c: 17: SPEN=1;
  2589  071C  1798               	bsf	(199/8),(199)&7
  2590                           	line	18
  2591                           	
  2592  071D                     l5249:	
  2593                           ;Rs232.c: 18: TRISC7=1;
  2594  071D  1683               	bsf	status, 5	;RP0=1, select bank1
  2595  071E  1303               	bcf	status, 6	;RP1=0, select bank1
  2596  071F  1787               	bsf	(1087/8)^080h,(1087)&7
  2597                           	line	19
  2598                           	
  2599  0720                     l5251:	
  2600                           ;Rs232.c: 19: TRISC6=1;
  2601  0720  1707               	bsf	(1086/8)^080h,(1086)&7
  2602                           	line	22
  2603                           	
  2604  0721                     l5253:	
  2605                           ;Rs232.c: 22: GIE=1;
  2606  0721  178B               	bsf	(95/8),(95)&7
  2607                           	line	23
  2608                           	
  2609  0722                     l5255:	
  2610                           ;Rs232.c: 23: PEIE=1;
  2611  0722  170B               	bsf	(94/8),(94)&7
  2612                           	line	24
  2613                           	
  2614  0723                     l5257:	
  2615                           ;Rs232.c: 24: RCIE=1;
  2616  0723  168C               	bsf	(1125/8)^080h,(1125)&7
  2617                           	line	26
  2618                           	
  2619  0724                     l2157:	
  2620  0724  0008               	return
  2621                           	opt stack 0
  2622                           GLOBAL	__end_of_Rs232Conf
  2623  0725                     	__end_of_Rs232Conf:
  2624 ;; =============== function _Rs232Conf ends ============
  2625                           
  2626                           	signat	_Rs232Conf,8312
  2627                           	global	___altoft
  2628                           psect	text473,local,class=CODE,delta=2
  2629                           global __ptext473
  2630  0EC2                     __ptext473:
  2631                           
  2632 ;; *************** function ___altoft *****************
  2633 ;; Defined at:
  2634 ;;		line 43 in file "C:\Program Files (x86)\HI-TECH Software\PICC\9.82\sources\altoft.c"
  2635 ;; Parameters:    Size  Location     Type
  2636 ;;  c               4   22[BANK0 ] long 
  2637 ;; Auto vars:     Size  Location     Type
  2638 ;;  sign            1   29[BANK0 ] unsigned char 
  2639 ;;  exp             1   28[BANK0 ] unsigned char 
  2640 ;; Return value:  Size  Location     Type
  2641 ;;                  3   22[BANK0 ] float 
  2642 ;; Registers used:
  2643 ;;		wreg, status,2, status,0, pclath, cstack
  2644 ;; Tracked objects:
  2645 ;;		On entry : 0/0
  2646 ;;		On exit  : 0/0
  2647 ;;		Unchanged: 0/0
  2648 ;; Data sizes:     COMMON   BANK0   BANK1   BANK3   BANK2
  2649 ;;      Params:         0       4       0       0       0
  2650 ;;      Locals:         0       2       0       0       0
  2651 ;;      Temps:          0       2       0       0       0
  2652 ;;      Totals:         0       8       0       0       0
  2653 ;;Total ram usage:        8 bytes
  2654 ;; Hardware stack levels used:    1
  2655 ;; Hardware stack levels required when called:    2
  2656 ;; This function calls:
  2657 ;;		___ftpack
  2658 ;; This function is called by:
  2659 ;;		_Rs232Conf
  2660 ;; This function uses a non-reentrant model
  2661 ;;
  2662                           psect	text473
  2663                           	file	"C:\Program Files (x86)\HI-TECH Software\PICC\9.82\sources\altoft.c"
  2664                           	line	43
  2665                           	global	__size_of___altoft
  2666  004D                     	__size_of___altoft	equ	__end_of___altoft-___altoft
  2667                           	
  2668  0EC2                     ___altoft:	
  2669                           	opt	stack 4
  2670                           ; Regs used in ___altoft: [wreg+status,2+status,0+pclath+cstack]
  2671                           	line	45
  2672                           	
  2673  0EC2                     l5217:	
  2674  0EC2  1283               	bcf	status, 5	;RP0=0, select bank0
  2675  0EC3  1303               	bcf	status, 6	;RP1=0, select bank0
  2676  0EC4  01BD               	clrf	(___altoft@sign)
  2677                           	line	46
  2678                           	
  2679  0EC5                     l5219:	
  2680  0EC5  308E               	movlw	(08Eh)
  2681  0EC6  00BA               	movwf	(??___altoft+0)+0
  2682  0EC7  083A               	movf	(??___altoft+0)+0,w
  2683  0EC8  00BC               	movwf	(___altoft@exp)
  2684                           	line	47
  2685                           	
  2686  0EC9                     l5221:	
  2687  0EC9  1FB9               	btfss	(___altoft@c+3),7
  2688  0ECA  2ECC               	goto	u3411
  2689  0ECB  2ECD               	goto	u3410
  2690  0ECC                     u3411:
  2691  0ECC  2EEB               	goto	l5229
  2692  0ECD                     u3410:
  2693                           	line	48
  2694                           	
  2695  0ECD                     l5223:	
  2696  0ECD  09B6               	comf	(___altoft@c),f
  2697  0ECE  09B7               	comf	(___altoft@c+1),f
  2698  0ECF  09B8               	comf	(___altoft@c+2),f
  2699  0ED0  09B9               	comf	(___altoft@c+3),f
  2700  0ED1  0AB6               	incf	(___altoft@c),f
  2701  0ED2  1903               	skipnz
  2702  0ED3  0AB7               	incf	(___altoft@c+1),f
  2703  0ED4  1903               	skipnz
  2704  0ED5  0AB8               	incf	(___altoft@c+2),f
  2705  0ED6  1903               	skipnz
  2706  0ED7  0AB9               	incf	(___altoft@c+3),f
  2707                           	line	49
  2708                           	
  2709  0ED8                     l5225:	
  2710  0ED8  01BD               	clrf	(___altoft@sign)
  2711  0ED9  1403               	bsf	status,0
  2712  0EDA  0DBD               	rlf	(___altoft@sign),f
  2713  0EDB  2EEB               	goto	l5229
  2714                           	line	50
  2715                           	
  2716  0EDC                     l3079:	
  2717                           	line	52
  2718  0EDC  2EEB               	goto	l5229
  2719                           	
  2720  0EDD                     l3081:	
  2721                           	line	53
  2722                           	
  2723  0EDD                     l5227:	
  2724  0EDD  3001               	movlw	01h
  2725  0EDE                     u3425:
  2726  0EDE  1003               	clrc
  2727  0EDF  0CB9               	rrf	(___altoft@c+3),f
  2728  0EE0  0CB8               	rrf	(___altoft@c+2),f
  2729  0EE1  0CB7               	rrf	(___altoft@c+1),f
  2730  0EE2  0CB6               	rrf	(___altoft@c),f
  2731  0EE3  3EFF               	addlw	-1
  2732  0EE4  1D03               	skipz
  2733  0EE5  2EDE               	goto	u3425
  2734                           
  2735                           	line	54
  2736  0EE6  3001               	movlw	(01h)
  2737  0EE7  00BA               	movwf	(??___altoft+0)+0
  2738  0EE8  083A               	movf	(??___altoft+0)+0,w
  2739  0EE9  07BC               	addwf	(___altoft@exp),f
  2740  0EEA  2EEB               	goto	l5229
  2741                           	line	55
  2742                           	
  2743  0EEB                     l3080:	
  2744                           	line	52
  2745                           	
  2746  0EEB                     l5229:	
  2747  0EEB  30FF               	movlw	high highword(-16777216)
  2748  0EEC  0539               	andwf	(___altoft@c+3),w
  2749  0EED  1D03               	btfss	status,2
  2750  0EEE  2EF0               	goto	u3431
  2751  0EEF  2EF1               	goto	u3430
  2752  0EF0                     u3431:
  2753  0EF0  2EDD               	goto	l5227
  2754  0EF1                     u3430:
  2755  0EF1  2EF2               	goto	l5231
  2756                           	
  2757  0EF2                     l3082:	
  2758                           	line	56
  2759                           	
  2760  0EF2                     l5231:	
  2761  0EF2  0836               	movf	(___altoft@c),w
  2762  0EF3  00F4               	movwf	(?___ftpack)
  2763  0EF4  0837               	movf	(___altoft@c+1),w
  2764  0EF5  00F5               	movwf	(?___ftpack+1)
  2765  0EF6  0838               	movf	(___altoft@c+2),w
  2766  0EF7  00F6               	movwf	(?___ftpack+2)
  2767  0EF8  083C               	movf	(___altoft@exp),w
  2768  0EF9  00BA               	movwf	(??___altoft+0)+0
  2769  0EFA  083A               	movf	(??___altoft+0)+0,w
  2770  0EFB  00F7               	movwf	0+(?___ftpack)+03h
  2771  0EFC  083D               	movf	(___altoft@sign),w
  2772  0EFD  00BB               	movwf	(??___altoft+1)+0
  2773  0EFE  083B               	movf	(??___altoft+1)+0,w
  2774  0EFF  00F8               	movwf	0+(?___ftpack)+04h
  2775  0F00  120A  158A  277F   	fcall	___ftpack
              120A  158A         
  2776  0F05  0874               	movf	(0+(?___ftpack)),w
  2777  0F06  1283               	bcf	status, 5	;RP0=0, select bank0
  2778  0F07  1303               	bcf	status, 6	;RP1=0, select bank0
  2779  0F08  00B6               	movwf	(?___altoft)
  2780  0F09  0875               	movf	(1+(?___ftpack)),w
  2781  0F0A  00B7               	movwf	(?___altoft+1)
  2782  0F0B  0876               	movf	(2+(?___ftpack)),w
  2783  0F0C  00B8               	movwf	(?___altoft+2)
  2784  0F0D  2F0E               	goto	l3083
  2785                           	
  2786  0F0E                     l5233:	
  2787                           	line	57
  2788                           	
  2789  0F0E                     l3083:	
  2790  0F0E  0008               	return
  2791                           	opt stack 0
  2792                           GLOBAL	__end_of___altoft
  2793  0F0F                     	__end_of___altoft:
  2794 ;; =============== function ___altoft ends ============
  2795                           
  2796                           	signat	___altoft,4219
  2797                           	global	___lwtoft
  2798                           psect	text474,local,class=CODE,delta=2
  2799                           global __ptext474
  2800  0E0E                     __ptext474:
  2801                           
  2802 ;; *************** function ___lwtoft *****************
  2803 ;; Defined at:
  2804 ;;		line 29 in file "C:\Program Files (x86)\HI-TECH Software\PICC\9.82\sources\lwtoft.c"
  2805 ;; Parameters:    Size  Location     Type
  2806 ;;  c               2   22[BANK0 ] unsigned int 
  2807 ;; Auto vars:     Size  Location     Type
  2808 ;;		None
  2809 ;; Return value:  Size  Location     Type
  2810 ;;                  3   22[BANK0 ] float 
  2811 ;; Registers used:
  2812 ;;		wreg, status,2, status,0, pclath, cstack
  2813 ;; Tracked objects:
  2814 ;;		On entry : 0/0
  2815 ;;		On exit  : 0/0
  2816 ;;		Unchanged: 0/0
  2817 ;; Data sizes:     COMMON   BANK0   BANK1   BANK3   BANK2
  2818 ;;      Params:         0       3       0       0       0
  2819 ;;      Locals:         0       0       0       0       0
  2820 ;;      Temps:          1       0       0       0       0
  2821 ;;      Totals:         1       3       0       0       0
  2822 ;;Total ram usage:        4 bytes
  2823 ;; Hardware stack levels used:    1
  2824 ;; Hardware stack levels required when called:    2
  2825 ;; This function calls:
  2826 ;;		___ftpack
  2827 ;; This function is called by:
  2828 ;;		_convert_temp
  2829 ;;		_Rs232Conf
  2830 ;; This function uses a non-reentrant model
  2831 ;;
  2832                           psect	text474
  2833                           	file	"C:\Program Files (x86)\HI-TECH Software\PICC\9.82\sources\lwtoft.c"
  2834                           	line	29
  2835                           	global	__size_of___lwtoft
  2836  001B                     	__size_of___lwtoft	equ	__end_of___lwtoft-___lwtoft
  2837                           	
  2838  0E0E                     ___lwtoft:	
  2839                           	opt	stack 4
  2840                           ; Regs used in ___lwtoft: [wreg+status,2+status,0+pclath+cstack]
  2841                           	line	30
  2842                           	
  2843  0E0E                     l5213:	
  2844  0E0E  1283               	bcf	status, 5	;RP0=0, select bank0
  2845  0E0F  1303               	bcf	status, 6	;RP1=0, select bank0
  2846  0E10  0836               	movf	(___lwtoft@c),w
  2847  0E11  00F4               	movwf	(?___ftpack)
  2848  0E12  0837               	movf	(___lwtoft@c+1),w
  2849  0E13  00F5               	movwf	(?___ftpack+1)
  2850  0E14  01F6               	clrf	(?___ftpack+2)
  2851  0E15  308E               	movlw	(08Eh)
  2852  0E16  00F9               	movwf	(??___lwtoft+0)+0
  2853  0E17  0879               	movf	(??___lwtoft+0)+0,w
  2854  0E18  00F7               	movwf	0+(?___ftpack)+03h
  2855  0E19  01F8               	clrf	0+(?___ftpack)+04h
  2856  0E1A  120A  158A  277F   	fcall	___ftpack
              120A  158A         
  2857  0E1F  0874               	movf	(0+(?___ftpack)),w
  2858  0E20  1283               	bcf	status, 5	;RP0=0, select bank0
  2859  0E21  1303               	bcf	status, 6	;RP1=0, select bank0
  2860  0E22  00B6               	movwf	(?___lwtoft)
  2861  0E23  0875               	movf	(1+(?___ftpack)),w
  2862  0E24  00B7               	movwf	(?___lwtoft+1)
  2863  0E25  0876               	movf	(2+(?___ftpack)),w
  2864  0E26  00B8               	movwf	(?___lwtoft+2)
  2865  0E27  2E28               	goto	l3074
  2866                           	
  2867  0E28                     l5215:	
  2868                           	line	31
  2869                           	
  2870  0E28                     l3074:	
  2871  0E28  0008               	return
  2872                           	opt stack 0
  2873                           GLOBAL	__end_of___lwtoft
  2874  0E29                     	__end_of___lwtoft:
  2875 ;; =============== function ___lwtoft ends ============
  2876                           
  2877                           	signat	___lwtoft,4219
  2878                           	global	___awtoft
  2879                           psect	text475,local,class=CODE,delta=2
  2880                           global __ptext475
  2881  0E4A                     __ptext475:
  2882                           
  2883 ;; *************** function ___awtoft *****************
  2884 ;; Defined at:
  2885 ;;		line 33 in file "C:\Program Files (x86)\HI-TECH Software\PICC\9.82\sources\awtoft.c"
  2886 ;; Parameters:    Size  Location     Type
  2887 ;;  c               2   22[BANK0 ] int 
  2888 ;; Auto vars:     Size  Location     Type
  2889 ;;  sign            1    9[COMMON] unsigned char 
  2890 ;; Return value:  Size  Location     Type
  2891 ;;                  3   22[BANK0 ] float 
  2892 ;; Registers used:
  2893 ;;		wreg, status,2, status,0, pclath, cstack
  2894 ;; Tracked objects:
  2895 ;;		On entry : 0/0
  2896 ;;		On exit  : 0/0
  2897 ;;		Unchanged: 0/0
  2898 ;; Data sizes:     COMMON   BANK0   BANK1   BANK3   BANK2
  2899 ;;      Params:         0       3       0       0       0
  2900 ;;      Locals:         1       0       0       0       0
  2901 ;;      Temps:          0       2       0       0       0
  2902 ;;      Totals:         1       5       0       0       0
  2903 ;;Total ram usage:        6 bytes
  2904 ;; Hardware stack levels used:    1
  2905 ;; Hardware stack levels required when called:    2
  2906 ;; This function calls:
  2907 ;;		___ftpack
  2908 ;; This function is called by:
  2909 ;;		_main
  2910 ;; This function uses a non-reentrant model
  2911 ;;
  2912                           psect	text475
  2913                           	file	"C:\Program Files (x86)\HI-TECH Software\PICC\9.82\sources\awtoft.c"
  2914                           	line	33
  2915                           	global	__size_of___awtoft
  2916  002C                     	__size_of___awtoft	equ	__end_of___awtoft-___awtoft
  2917                           	
  2918  0E4A                     ___awtoft:	
  2919                           	opt	stack 5
  2920                           ; Regs used in ___awtoft: [wreg+status,2+status,0+pclath+cstack]
  2921                           	line	36
  2922                           	
  2923  0E4A                     l5205:	
  2924  0E4A  01F9               	clrf	(___awtoft@sign)
  2925                           	line	37
  2926  0E4B  1283               	bcf	status, 5	;RP0=0, select bank0
  2927  0E4C  1303               	bcf	status, 6	;RP1=0, select bank0
  2928  0E4D  1FB7               	btfss	(___awtoft@c+1),7
  2929  0E4E  2E50               	goto	u3401
  2930  0E4F  2E51               	goto	u3400
  2931  0E50                     u3401:
  2932  0E50  2E5A               	goto	l5209
  2933  0E51                     u3400:
  2934                           	line	38
  2935                           	
  2936  0E51                     l5207:	
  2937  0E51  09B6               	comf	(___awtoft@c),f
  2938  0E52  09B7               	comf	(___awtoft@c+1),f
  2939  0E53  0AB6               	incf	(___awtoft@c),f
  2940  0E54  1903               	skipnz
  2941  0E55  0AB7               	incf	(___awtoft@c+1),f
  2942                           	line	39
  2943  0E56  01F9               	clrf	(___awtoft@sign)
  2944  0E57  1403               	bsf	status,0
  2945  0E58  0DF9               	rlf	(___awtoft@sign),f
  2946  0E59  2E5A               	goto	l5209
  2947                           	line	40
  2948                           	
  2949  0E5A                     l2987:	
  2950                           	line	41
  2951                           	
  2952  0E5A                     l5209:	
  2953  0E5A  0836               	movf	(___awtoft@c),w
  2954  0E5B  00F4               	movwf	(?___ftpack)
  2955  0E5C  0837               	movf	(___awtoft@c+1),w
  2956  0E5D  00F5               	movwf	(?___ftpack+1)
  2957  0E5E  01F6               	clrf	(?___ftpack+2)
  2958  0E5F  308E               	movlw	(08Eh)
  2959  0E60  00B9               	movwf	(??___awtoft+0)+0
  2960  0E61  0839               	movf	(??___awtoft+0)+0,w
  2961  0E62  00F7               	movwf	0+(?___ftpack)+03h
  2962  0E63  0879               	movf	(___awtoft@sign),w
  2963  0E64  00BA               	movwf	(??___awtoft+1)+0
  2964  0E65  083A               	movf	(??___awtoft+1)+0,w
  2965  0E66  00F8               	movwf	0+(?___ftpack)+04h
  2966  0E67  120A  158A  277F   	fcall	___ftpack
              120A  158A         
  2967  0E6C  0874               	movf	(0+(?___ftpack)),w
  2968  0E6D  1283               	bcf	status, 5	;RP0=0, select bank0
  2969  0E6E  1303               	bcf	status, 6	;RP1=0, select bank0
  2970  0E6F  00B6               	movwf	(?___awtoft)
  2971  0E70  0875               	movf	(1+(?___ftpack)),w
  2972  0E71  00B7               	movwf	(?___awtoft+1)
  2973  0E72  0876               	movf	(2+(?___ftpack)),w
  2974  0E73  00B8               	movwf	(?___awtoft+2)
  2975  0E74  2E75               	goto	l2988
  2976                           	
  2977  0E75                     l5211:	
  2978                           	line	42
  2979                           	
  2980  0E75                     l2988:	
  2981  0E75  0008               	return
  2982                           	opt stack 0
  2983                           GLOBAL	__end_of___awtoft
  2984  0E76                     	__end_of___awtoft:
  2985 ;; =============== function ___awtoft ends ============
  2986                           
  2987                           	signat	___awtoft,4219
  2988                           	global	___lbtoft
  2989                           psect	text476,local,class=CODE,delta=2
  2990                           global __ptext476
  2991  0E29                     __ptext476:
  2992                           
  2993 ;; *************** function ___lbtoft *****************
  2994 ;; Defined at:
  2995 ;;		line 28 in file "C:\Program Files (x86)\HI-TECH Software\PICC\9.82\sources\lbtoft.c"
  2996 ;; Parameters:    Size  Location     Type
  2997 ;;  c               1    wreg     unsigned char 
  2998 ;; Auto vars:     Size  Location     Type
  2999 ;;  c               1    9[COMMON] unsigned char 
  3000 ;; Return value:  Size  Location     Type
  3001 ;;                  3   25[BANK0 ] float 
  3002 ;; Registers used:
  3003 ;;		wreg, status,2, status,0, pclath, cstack
  3004 ;; Tracked objects:
  3005 ;;		On entry : 0/0
  3006 ;;		On exit  : 0/0
  3007 ;;		Unchanged: 0/0
  3008 ;; Data sizes:     COMMON   BANK0   BANK1   BANK3   BANK2
  3009 ;;      Params:         0       3       0       0       0
  3010 ;;      Locals:         1       0       0       0       0
  3011 ;;      Temps:          0       4       0       0       0
  3012 ;;      Totals:         1       7       0       0       0
  3013 ;;Total ram usage:        8 bytes
  3014 ;; Hardware stack levels used:    1
  3015 ;; Hardware stack levels required when called:    2
  3016 ;; This function calls:
  3017 ;;		___ftpack
  3018 ;; This function is called by:
  3019 ;;		_main
  3020 ;; This function uses a non-reentrant model
  3021 ;;
  3022                           psect	text476
  3023                           	file	"C:\Program Files (x86)\HI-TECH Software\PICC\9.82\sources\lbtoft.c"
  3024                           	line	28
  3025                           	global	__size_of___lbtoft
  3026  0021                     	__size_of___lbtoft	equ	__end_of___lbtoft-___lbtoft
  3027                           	
  3028  0E29                     ___lbtoft:	
  3029                           	opt	stack 5
  3030                           ; Regs used in ___lbtoft: [wreg+status,2+status,0+pclath+cstack]
  3031                           ;___lbtoft@c stored from wreg
  3032  0E29  00F9               	movwf	(___lbtoft@c)
  3033                           	line	29
  3034                           	
  3035  0E2A                     l5201:	
  3036  0E2A  0879               	movf	(___lbtoft@c),w
  3037  0E2B  1283               	bcf	status, 5	;RP0=0, select bank0
  3038  0E2C  1303               	bcf	status, 6	;RP1=0, select bank0
  3039  0E2D  00BC               	movwf	((??___lbtoft+0)+0)
  3040  0E2E  01BD               	clrf	((??___lbtoft+0)+0+1)
  3041  0E2F  01BE               	clrf	((??___lbtoft+0)+0+2)
  3042  0E30  083C               	movf	0+(??___lbtoft+0)+0,w
  3043  0E31  00F4               	movwf	(?___ftpack)
  3044  0E32  083D               	movf	1+(??___lbtoft+0)+0,w
  3045  0E33  00F5               	movwf	(?___ftpack+1)
  3046  0E34  083E               	movf	2+(??___lbtoft+0)+0,w
  3047  0E35  00F6               	movwf	(?___ftpack+2)
  3048  0E36  308E               	movlw	(08Eh)
  3049  0E37  00BF               	movwf	(??___lbtoft+3)+0
  3050  0E38  083F               	movf	(??___lbtoft+3)+0,w
  3051  0E39  00F7               	movwf	0+(?___ftpack)+03h
  3052  0E3A  01F8               	clrf	0+(?___ftpack)+04h
  3053  0E3B  120A  158A  277F   	fcall	___ftpack
              120A  158A         
  3054  0E40  0874               	movf	(0+(?___ftpack)),w
  3055  0E41  1283               	bcf	status, 5	;RP0=0, select bank0
  3056  0E42  1303               	bcf	status, 6	;RP1=0, select bank0
  3057  0E43  00B9               	movwf	(?___lbtoft)
  3058  0E44  0875               	movf	(1+(?___ftpack)),w
  3059  0E45  00BA               	movwf	(?___lbtoft+1)
  3060  0E46  0876               	movf	(2+(?___ftpack)),w
  3061  0E47  00BB               	movwf	(?___lbtoft+2)
  3062  0E48  2E49               	goto	l2976
  3063                           	
  3064  0E49                     l5203:	
  3065                           	line	30
  3066                           	
  3067  0E49                     l2976:	
  3068  0E49  0008               	return
  3069                           	opt stack 0
  3070                           GLOBAL	__end_of___lbtoft
  3071  0E4A                     	__end_of___lbtoft:
  3072 ;; =============== function ___lbtoft ends ============
  3073                           
  3074                           	signat	___lbtoft,4219
  3075                           	global	___ftmul
  3076                           psect	text477,local,class=CODE,delta=2
  3077                           global __ptext477
  3078  0425                     __ptext477:
  3079                           
  3080 ;; *************** function ___ftmul *****************
  3081 ;; Defined at:
  3082 ;;		line 52 in file "C:\Program Files (x86)\HI-TECH Software\PICC\9.82\sources\ftmul.c"
  3083 ;; Parameters:    Size  Location     Type
  3084 ;;  f1              3   45[BANK0 ] float 
  3085 ;;  f2              3   48[BANK0 ] float 
  3086 ;; Auto vars:     Size  Location     Type
  3087 ;;  f3_as_produc    3   56[BANK0 ] unsigned um
  3088 ;;  sign            1   60[BANK0 ] unsigned char 
  3089 ;;  cntr            1   59[BANK0 ] unsigned char 
  3090 ;;  exp             1   55[BANK0 ] unsigned char 
  3091 ;; Return value:  Size  Location     Type
  3092 ;;                  3   45[BANK0 ] float 
  3093 ;; Registers used:
  3094 ;;		wreg, status,2, status,0, pclath, cstack
  3095 ;; Tracked objects:
  3096 ;;		On entry : 0/0
  3097 ;;		On exit  : 0/0
  3098 ;;		Unchanged: 0/0
  3099 ;; Data sizes:     COMMON   BANK0   BANK1   BANK3   BANK2
  3100 ;;      Params:         0       6       0       0       0
  3101 ;;      Locals:         0       6       0       0       0
  3102 ;;      Temps:          0       4       0       0       0
  3103 ;;      Totals:         0      16       0       0       0
  3104 ;;Total ram usage:       16 bytes
  3105 ;; Hardware stack levels used:    1
  3106 ;; Hardware stack levels required when called:    2
  3107 ;; This function calls:
  3108 ;;		___ftpack
  3109 ;; This function is called by:
  3110 ;;		_main
  3111 ;;		_convert_temp
  3112 ;;		_Rs232Conf
  3113 ;; This function uses a non-reentrant model
  3114 ;;
  3115                           psect	text477
  3116                           	file	"C:\Program Files (x86)\HI-TECH Software\PICC\9.82\sources\ftmul.c"
  3117                           	line	52
  3118                           	global	__size_of___ftmul
  3119  00EE                     	__size_of___ftmul	equ	__end_of___ftmul-___ftmul
  3120                           	
  3121  0425                     ___ftmul:	
  3122                           	opt	stack 5
  3123                           ; Regs used in ___ftmul: [wreg+status,2+status,0+pclath+cstack]
  3124                           	line	56
  3125                           	
  3126  0425                     l5151:	
  3127  0425  1283               	bcf	status, 5	;RP0=0, select bank0
  3128  0426  1303               	bcf	status, 6	;RP1=0, select bank0
  3129  0427  084D               	movf	(___ftmul@f1),w
  3130  0428  00D3               	movwf	((??___ftmul+0)+0)
  3131  0429  084E               	movf	(___ftmul@f1+1),w
  3132  042A  00D4               	movwf	((??___ftmul+0)+0+1)
  3133  042B  084F               	movf	(___ftmul@f1+2),w
  3134  042C  00D5               	movwf	((??___ftmul+0)+0+2)
  3135  042D  1003               	clrc
  3136  042E  0D54               	rlf	(??___ftmul+0)+1,w
  3137  042F  0D55               	rlf	(??___ftmul+0)+2,w
  3138  0430  00D6               	movwf	(??___ftmul+3)+0
  3139  0431  0856               	movf	(??___ftmul+3)+0,w
  3140  0432  00D7               	movwf	(___ftmul@exp)
  3141  0433  08D7               	movf	((___ftmul@exp)),f
  3142  0434  1D03               	skipz
  3143  0435  2C37               	goto	u3261
  3144  0436  2C38               	goto	u3260
  3145  0437                     u3261:
  3146  0437  2C40               	goto	l5157
  3147  0438                     u3260:
  3148                           	line	57
  3149                           	
  3150  0438                     l5153:	
  3151  0438  3000               	movlw	0x0
  3152  0439  00CD               	movwf	(?___ftmul)
  3153  043A  3000               	movlw	0x0
  3154  043B  00CE               	movwf	(?___ftmul+1)
  3155  043C  3000               	movlw	0x0
  3156  043D  00CF               	movwf	(?___ftmul+2)
  3157  043E  2D12               	goto	l2950
  3158                           	
  3159  043F                     l5155:	
  3160  043F  2D12               	goto	l2950
  3161                           	
  3162  0440                     l2949:	
  3163                           	line	58
  3164                           	
  3165  0440                     l5157:	
  3166  0440  0850               	movf	(___ftmul@f2),w
  3167  0441  00D3               	movwf	((??___ftmul+0)+0)
  3168  0442  0851               	movf	(___ftmul@f2+1),w
  3169  0443  00D4               	movwf	((??___ftmul+0)+0+1)
  3170  0444  0852               	movf	(___ftmul@f2+2),w
  3171  0445  00D5               	movwf	((??___ftmul+0)+0+2)
  3172  0446  1003               	clrc
  3173  0447  0D54               	rlf	(??___ftmul+0)+1,w
  3174  0448  0D55               	rlf	(??___ftmul+0)+2,w
  3175  0449  00D6               	movwf	(??___ftmul+3)+0
  3176  044A  0856               	movf	(??___ftmul+3)+0,w
  3177  044B  00DC               	movwf	(___ftmul@sign)
  3178  044C  08DC               	movf	((___ftmul@sign)),f
  3179  044D  1D03               	skipz
  3180  044E  2C50               	goto	u3271
  3181  044F  2C51               	goto	u3270
  3182  0450                     u3271:
  3183  0450  2C59               	goto	l5163
  3184  0451                     u3270:
  3185                           	line	59
  3186                           	
  3187  0451                     l5159:	
  3188  0451  3000               	movlw	0x0
  3189  0452  00CD               	movwf	(?___ftmul)
  3190  0453  3000               	movlw	0x0
  3191  0454  00CE               	movwf	(?___ftmul+1)
  3192  0455  3000               	movlw	0x0
  3193  0456  00CF               	movwf	(?___ftmul+2)
  3194  0457  2D12               	goto	l2950
  3195                           	
  3196  0458                     l5161:	
  3197  0458  2D12               	goto	l2950
  3198                           	
  3199  0459                     l2951:	
  3200                           	line	60
  3201                           	
  3202  0459                     l5163:	
  3203  0459  085C               	movf	(___ftmul@sign),w
  3204  045A  3E7B               	addlw	07Bh
  3205  045B  00D3               	movwf	(??___ftmul+0)+0
  3206  045C  0853               	movf	(??___ftmul+0)+0,w
  3207  045D  07D7               	addwf	(___ftmul@exp),f
  3208                           	line	61
  3209  045E  084D               	movf	(___ftmul@f1),w
  3210  045F  00D3               	movwf	((??___ftmul+0)+0)
  3211  0460  084E               	movf	(___ftmul@f1+1),w
  3212  0461  00D4               	movwf	((??___ftmul+0)+0+1)
  3213  0462  084F               	movf	(___ftmul@f1+2),w
  3214  0463  00D5               	movwf	((??___ftmul+0)+0+2)
  3215  0464  3010               	movlw	010h
  3216  0465                     u3285:
  3217  0465  1003               	clrc
  3218  0466  0CD5               	rrf	(??___ftmul+0)+2,f
  3219  0467  0CD4               	rrf	(??___ftmul+0)+1,f
  3220  0468  0CD3               	rrf	(??___ftmul+0)+0,f
  3221  0469                     u3280:
  3222  0469  3EFF               	addlw	-1
  3223  046A  1D03               	skipz
  3224  046B  2C65               	goto	u3285
  3225  046C  0853               	movf	0+(??___ftmul+0)+0,w
  3226  046D  00D6               	movwf	(??___ftmul+3)+0
  3227  046E  0856               	movf	(??___ftmul+3)+0,w
  3228  046F  00DC               	movwf	(___ftmul@sign)
  3229                           	line	62
  3230  0470  0850               	movf	(___ftmul@f2),w
  3231  0471  00D3               	movwf	((??___ftmul+0)+0)
  3232  0472  0851               	movf	(___ftmul@f2+1),w
  3233  0473  00D4               	movwf	((??___ftmul+0)+0+1)
  3234  0474  0852               	movf	(___ftmul@f2+2),w
  3235  0475  00D5               	movwf	((??___ftmul+0)+0+2)
  3236  0476  3010               	movlw	010h
  3237  0477                     u3295:
  3238  0477  1003               	clrc
  3239  0478  0CD5               	rrf	(??___ftmul+0)+2,f
  3240  0479  0CD4               	rrf	(??___ftmul+0)+1,f
  3241  047A  0CD3               	rrf	(??___ftmul+0)+0,f
  3242  047B                     u3290:
  3243  047B  3EFF               	addlw	-1
  3244  047C  1D03               	skipz
  3245  047D  2C77               	goto	u3295
  3246  047E  0853               	movf	0+(??___ftmul+0)+0,w
  3247  047F  00D6               	movwf	(??___ftmul+3)+0
  3248  0480  0856               	movf	(??___ftmul+3)+0,w
  3249  0481  06DC               	xorwf	(___ftmul@sign),f
  3250                           	line	63
  3251  0482  3080               	movlw	(080h)
  3252  0483  00D3               	movwf	(??___ftmul+0)+0
  3253  0484  0853               	movf	(??___ftmul+0)+0,w
  3254  0485  05DC               	andwf	(___ftmul@sign),f
  3255                           	line	64
  3256                           	
  3257  0486                     l5165:	
  3258  0486  17CE               	bsf	(___ftmul@f1)+(15/8),(15)&7
  3259                           	line	66
  3260                           	
  3261  0487                     l5167:	
  3262  0487  17D1               	bsf	(___ftmul@f2)+(15/8),(15)&7
  3263                           	line	67
  3264                           	
  3265  0488                     l5169:	
  3266  0488  30FF               	movlw	0FFh
  3267  0489  05D0               	andwf	(___ftmul@f2),f
  3268  048A  30FF               	movlw	0FFh
  3269  048B  05D1               	andwf	(___ftmul@f2+1),f
  3270  048C  3000               	movlw	0
  3271  048D  05D2               	andwf	(___ftmul@f2+2),f
  3272                           	line	68
  3273                           	
  3274  048E                     l5171:	
  3275  048E  3000               	movlw	0
  3276  048F  00D8               	movwf	(___ftmul@f3_as_product)
  3277  0490  3000               	movlw	0
  3278  0491  00D9               	movwf	(___ftmul@f3_as_product+1)
  3279  0492  3000               	movlw	0
  3280  0493  00DA               	movwf	(___ftmul@f3_as_product+2)
  3281                           	line	69
  3282                           	
  3283  0494                     l5173:	
  3284  0494  3007               	movlw	(07h)
  3285  0495  00D3               	movwf	(??___ftmul+0)+0
  3286  0496  0853               	movf	(??___ftmul+0)+0,w
  3287  0497  00DB               	movwf	(___ftmul@cntr)
  3288  0498  2C99               	goto	l5175
  3289                           	line	70
  3290                           	
  3291  0499                     l2952:	
  3292                           	line	71
  3293                           	
  3294  0499                     l5175:	
  3295  0499  1C4D               	btfss	(___ftmul@f1),(0)&7
  3296  049A  2C9C               	goto	u3301
  3297  049B  2C9D               	goto	u3300
  3298  049C                     u3301:
  3299  049C  2CAE               	goto	l5179
  3300  049D                     u3300:
  3301                           	line	72
  3302                           	
  3303  049D                     l5177:	
  3304  049D  0850               	movf	(___ftmul@f2),w
  3305  049E  07D8               	addwf	(___ftmul@f3_as_product),f
  3306  049F  0851               	movf	(___ftmul@f2+1),w
  3307  04A0  1103               	clrz
  3308  04A1  1803               	skipnc
  3309  04A2  0A51               	incf	(___ftmul@f2+1),w
  3310  04A3  1903               	skipnz
  3311  04A4  2CA6               	goto	u3311
  3312  04A5  07D9               	addwf	(___ftmul@f3_as_product+1),f
  3313  04A6                     u3311:
  3314  04A6  0852               	movf	(___ftmul@f2+2),w
  3315  04A7  1103               	clrz
  3316  04A8  1803               	skipnc
  3317  04A9  0A52               	incf	(___ftmul@f2+2),w
  3318  04AA  1903               	skipnz
  3319  04AB  2CAD               	goto	u3312
  3320  04AC  07DA               	addwf	(___ftmul@f3_as_product+2),f
  3321  04AD                     u3312:
  3322                           
  3323  04AD  2CAE               	goto	l5179
  3324                           	
  3325  04AE                     l2953:	
  3326                           	line	73
  3327                           	
  3328  04AE                     l5179:	
  3329  04AE  3001               	movlw	01h
  3330  04AF                     u3325:
  3331  04AF  1003               	clrc
  3332  04B0  0CCF               	rrf	(___ftmul@f1+2),f
  3333  04B1  0CCE               	rrf	(___ftmul@f1+1),f
  3334  04B2  0CCD               	rrf	(___ftmul@f1),f
  3335  04B3  3EFF               	addlw	-1
  3336  04B4  1D03               	skipz
  3337  04B5  2CAF               	goto	u3325
  3338                           
  3339                           	line	74
  3340                           	
  3341  04B6                     l5181:	
  3342  04B6  3001               	movlw	01h
  3343  04B7                     u3335:
  3344  04B7  1003               	clrc
  3345  04B8  0DD0               	rlf	(___ftmul@f2),f
  3346  04B9  0DD1               	rlf	(___ftmul@f2+1),f
  3347  04BA  0DD2               	rlf	(___ftmul@f2+2),f
  3348  04BB  3EFF               	addlw	-1
  3349  04BC  1D03               	skipz
  3350  04BD  2CB7               	goto	u3335
  3351                           	line	75
  3352                           	
  3353  04BE                     l5183:	
  3354  04BE  3001               	movlw	low(01h)
  3355  04BF  02DB               	subwf	(___ftmul@cntr),f
  3356  04C0  1D03               	btfss	status,2
  3357  04C1  2CC3               	goto	u3341
  3358  04C2  2CC4               	goto	u3340
  3359  04C3                     u3341:
  3360  04C3  2C99               	goto	l5175
  3361  04C4                     u3340:
  3362  04C4  2CC5               	goto	l5185
  3363                           	
  3364  04C5                     l2954:	
  3365                           	line	76
  3366                           	
  3367  04C5                     l5185:	
  3368  04C5  3009               	movlw	(09h)
  3369  04C6  00D3               	movwf	(??___ftmul+0)+0
  3370  04C7  0853               	movf	(??___ftmul+0)+0,w
  3371  04C8  00DB               	movwf	(___ftmul@cntr)
  3372  04C9  2CCA               	goto	l5187
  3373                           	line	77
  3374                           	
  3375  04CA                     l2955:	
  3376                           	line	78
  3377                           	
  3378  04CA                     l5187:	
  3379  04CA  1C4D               	btfss	(___ftmul@f1),(0)&7
  3380  04CB  2CCD               	goto	u3351
  3381  04CC  2CCE               	goto	u3350
  3382  04CD                     u3351:
  3383  04CD  2CDF               	goto	l5191
  3384  04CE                     u3350:
  3385                           	line	79
  3386                           	
  3387  04CE                     l5189:	
  3388  04CE  0850               	movf	(___ftmul@f2),w
  3389  04CF  07D8               	addwf	(___ftmul@f3_as_product),f
  3390  04D0  0851               	movf	(___ftmul@f2+1),w
  3391  04D1  1103               	clrz
  3392  04D2  1803               	skipnc
  3393  04D3  0A51               	incf	(___ftmul@f2+1),w
  3394  04D4  1903               	skipnz
  3395  04D5  2CD7               	goto	u3361
  3396  04D6  07D9               	addwf	(___ftmul@f3_as_product+1),f
  3397  04D7                     u3361:
  3398  04D7  0852               	movf	(___ftmul@f2+2),w
  3399  04D8  1103               	clrz
  3400  04D9  1803               	skipnc
  3401  04DA  0A52               	incf	(___ftmul@f2+2),w
  3402  04DB  1903               	skipnz
  3403  04DC  2CDE               	goto	u3362
  3404  04DD  07DA               	addwf	(___ftmul@f3_as_product+2),f
  3405  04DE                     u3362:
  3406                           
  3407  04DE  2CDF               	goto	l5191
  3408                           	
  3409  04DF                     l2956:	
  3410                           	line	80
  3411                           	
  3412  04DF                     l5191:	
  3413  04DF  3001               	movlw	01h
  3414  04E0                     u3375:
  3415  04E0  1003               	clrc
  3416  04E1  0CCF               	rrf	(___ftmul@f1+2),f
  3417  04E2  0CCE               	rrf	(___ftmul@f1+1),f
  3418  04E3  0CCD               	rrf	(___ftmul@f1),f
  3419  04E4  3EFF               	addlw	-1
  3420  04E5  1D03               	skipz
  3421  04E6  2CE0               	goto	u3375
  3422                           
  3423                           	line	81
  3424                           	
  3425  04E7                     l5193:	
  3426  04E7  3001               	movlw	01h
  3427  04E8                     u3385:
  3428  04E8  1003               	clrc
  3429  04E9  0CDA               	rrf	(___ftmul@f3_as_product+2),f
  3430  04EA  0CD9               	rrf	(___ftmul@f3_as_product+1),f
  3431  04EB  0CD8               	rrf	(___ftmul@f3_as_product),f
  3432  04EC  3EFF               	addlw	-1
  3433  04ED  1D03               	skipz
  3434  04EE  2CE8               	goto	u3385
  3435                           
  3436                           	line	82
  3437                           	
  3438  04EF                     l5195:	
  3439  04EF  3001               	movlw	low(01h)
  3440  04F0  02DB               	subwf	(___ftmul@cntr),f
  3441  04F1  1D03               	btfss	status,2
  3442  04F2  2CF4               	goto	u3391
  3443  04F3  2CF5               	goto	u3390
  3444  04F4                     u3391:
  3445  04F4  2CCA               	goto	l5187
  3446  04F5                     u3390:
  3447  04F5  2CF6               	goto	l5197
  3448                           	
  3449  04F6                     l2957:	
  3450                           	line	83
  3451                           	
  3452  04F6                     l5197:	
  3453  04F6  0858               	movf	(___ftmul@f3_as_product),w
  3454  04F7  00F4               	movwf	(?___ftpack)
  3455  04F8  0859               	movf	(___ftmul@f3_as_product+1),w
  3456  04F9  00F5               	movwf	(?___ftpack+1)
  3457  04FA  085A               	movf	(___ftmul@f3_as_product+2),w
  3458  04FB  00F6               	movwf	(?___ftpack+2)
  3459  04FC  0857               	movf	(___ftmul@exp),w
  3460  04FD  00D3               	movwf	(??___ftmul+0)+0
  3461  04FE  0853               	movf	(??___ftmul+0)+0,w
  3462  04FF  00F7               	movwf	0+(?___ftpack)+03h
  3463  0500  085C               	movf	(___ftmul@sign),w
  3464  0501  00D4               	movwf	(??___ftmul+1)+0
  3465  0502  0854               	movf	(??___ftmul+1)+0,w
  3466  0503  00F8               	movwf	0+(?___ftpack)+04h
  3467  0504  120A  158A  277F   	fcall	___ftpack
              120A  118A         
  3468  0509  0874               	movf	(0+(?___ftpack)),w
  3469  050A  1283               	bcf	status, 5	;RP0=0, select bank0
  3470  050B  1303               	bcf	status, 6	;RP1=0, select bank0
  3471  050C  00CD               	movwf	(?___ftmul)
  3472  050D  0875               	movf	(1+(?___ftpack)),w
  3473  050E  00CE               	movwf	(?___ftmul+1)
  3474  050F  0876               	movf	(2+(?___ftpack)),w
  3475  0510  00CF               	movwf	(?___ftmul+2)
  3476  0511  2D12               	goto	l2950
  3477                           	
  3478  0512                     l5199:	
  3479                           	line	84
  3480                           	
  3481  0512                     l2950:	
  3482  0512  0008               	return
  3483                           	opt stack 0
  3484                           GLOBAL	__end_of___ftmul
  3485  0513                     	__end_of___ftmul:
  3486 ;; =============== function ___ftmul ends ============
  3487                           
  3488                           	signat	___ftmul,8315
  3489                           	global	___ftdiv
  3490                           psect	text478,local,class=CODE,delta=2
  3491                           global __ptext478
  3492  0513                     __ptext478:
  3493                           
  3494 ;; *************** function ___ftdiv *****************
  3495 ;; Defined at:
  3496 ;;		line 50 in file "C:\Program Files (x86)\HI-TECH Software\PICC\9.82\sources\ftdiv.c"
  3497 ;; Parameters:    Size  Location     Type
  3498 ;;  f2              3   61[BANK0 ] float 
  3499 ;;  f1              3   64[BANK0 ] float 
  3500 ;; Auto vars:     Size  Location     Type
  3501 ;;  f3              3   72[BANK0 ] float 
  3502 ;;  sign            1   76[BANK0 ] unsigned char 
  3503 ;;  exp             1   75[BANK0 ] unsigned char 
  3504 ;;  cntr            1   71[BANK0 ] unsigned char 
  3505 ;; Return value:  Size  Location     Type
  3506 ;;                  3   61[BANK0 ] float 
  3507 ;; Registers used:
  3508 ;;		wreg, status,2, status,0, pclath, cstack
  3509 ;; Tracked objects:
  3510 ;;		On entry : 0/0
  3511 ;;		On exit  : 0/0
  3512 ;;		Unchanged: 0/0
  3513 ;; Data sizes:     COMMON   BANK0   BANK1   BANK3   BANK2
  3514 ;;      Params:         0       6       0       0       0
  3515 ;;      Locals:         0       6       0       0       0
  3516 ;;      Temps:          0       4       0       0       0
  3517 ;;      Totals:         0      16       0       0       0
  3518 ;;Total ram usage:       16 bytes
  3519 ;; Hardware stack levels used:    1
  3520 ;; Hardware stack levels required when called:    2
  3521 ;; This function calls:
  3522 ;;		___ftpack
  3523 ;; This function is called by:
  3524 ;;		_main
  3525 ;;		_Rs232Conf
  3526 ;; This function uses a non-reentrant model
  3527 ;;
  3528                           psect	text478
  3529                           	file	"C:\Program Files (x86)\HI-TECH Software\PICC\9.82\sources\ftdiv.c"
  3530                           	line	50
  3531                           	global	__size_of___ftdiv
  3532  00C8                     	__size_of___ftdiv	equ	__end_of___ftdiv-___ftdiv
  3533                           	
  3534  0513                     ___ftdiv:	
  3535                           	opt	stack 5
  3536                           ; Regs used in ___ftdiv: [wreg+status,2+status,0+pclath+cstack]
  3537                           	line	55
  3538                           	
  3539  0513                     l5109:	
  3540  0513  1283               	bcf	status, 5	;RP0=0, select bank0
  3541  0514  1303               	bcf	status, 6	;RP1=0, select bank0
  3542  0515  0860               	movf	(___ftdiv@f1),w
  3543  0516  00E3               	movwf	((??___ftdiv+0)+0)
  3544  0517  0861               	movf	(___ftdiv@f1+1),w
  3545  0518  00E4               	movwf	((??___ftdiv+0)+0+1)
  3546  0519  0862               	movf	(___ftdiv@f1+2),w
  3547  051A  00E5               	movwf	((??___ftdiv+0)+0+2)
  3548  051B  1003               	clrc
  3549  051C  0D64               	rlf	(??___ftdiv+0)+1,w
  3550  051D  0D65               	rlf	(??___ftdiv+0)+2,w
  3551  051E  00E6               	movwf	(??___ftdiv+3)+0
  3552  051F  0866               	movf	(??___ftdiv+3)+0,w
  3553  0520  00EB               	movwf	(___ftdiv@exp)
  3554  0521  08EB               	movf	((___ftdiv@exp)),f
  3555  0522  1D03               	skipz
  3556  0523  2D25               	goto	u3181
  3557  0524  2D26               	goto	u3180
  3558  0525                     u3181:
  3559  0525  2D2E               	goto	l5115
  3560  0526                     u3180:
  3561                           	line	56
  3562                           	
  3563  0526                     l5111:	
  3564  0526  3000               	movlw	0x0
  3565  0527  00DD               	movwf	(?___ftdiv)
  3566  0528  3000               	movlw	0x0
  3567  0529  00DE               	movwf	(?___ftdiv+1)
  3568  052A  3000               	movlw	0x0
  3569  052B  00DF               	movwf	(?___ftdiv+2)
  3570  052C  2DDA               	goto	l2940
  3571                           	
  3572  052D                     l5113:	
  3573  052D  2DDA               	goto	l2940
  3574                           	
  3575  052E                     l2939:	
  3576                           	line	57
  3577                           	
  3578  052E                     l5115:	
  3579  052E  085D               	movf	(___ftdiv@f2),w
  3580  052F  00E3               	movwf	((??___ftdiv+0)+0)
  3581  0530  085E               	movf	(___ftdiv@f2+1),w
  3582  0531  00E4               	movwf	((??___ftdiv+0)+0+1)
  3583  0532  085F               	movf	(___ftdiv@f2+2),w
  3584  0533  00E5               	movwf	((??___ftdiv+0)+0+2)
  3585  0534  1003               	clrc
  3586  0535  0D64               	rlf	(??___ftdiv+0)+1,w
  3587  0536  0D65               	rlf	(??___ftdiv+0)+2,w
  3588  0537  00E6               	movwf	(??___ftdiv+3)+0
  3589  0538  0866               	movf	(??___ftdiv+3)+0,w
  3590  0539  00EC               	movwf	(___ftdiv@sign)
  3591  053A  08EC               	movf	((___ftdiv@sign)),f
  3592  053B  1D03               	skipz
  3593  053C  2D3E               	goto	u3191
  3594  053D  2D3F               	goto	u3190
  3595  053E                     u3191:
  3596  053E  2D47               	goto	l5121
  3597  053F                     u3190:
  3598                           	line	58
  3599                           	
  3600  053F                     l5117:	
  3601  053F  3000               	movlw	0x0
  3602  0540  00DD               	movwf	(?___ftdiv)
  3603  0541  3000               	movlw	0x0
  3604  0542  00DE               	movwf	(?___ftdiv+1)
  3605  0543  3000               	movlw	0x0
  3606  0544  00DF               	movwf	(?___ftdiv+2)
  3607  0545  2DDA               	goto	l2940
  3608                           	
  3609  0546                     l5119:	
  3610  0546  2DDA               	goto	l2940
  3611                           	
  3612  0547                     l2941:	
  3613                           	line	59
  3614                           	
  3615  0547                     l5121:	
  3616  0547  3000               	movlw	0
  3617  0548  00E8               	movwf	(___ftdiv@f3)
  3618  0549  3000               	movlw	0
  3619  054A  00E9               	movwf	(___ftdiv@f3+1)
  3620  054B  3000               	movlw	0
  3621  054C  00EA               	movwf	(___ftdiv@f3+2)
  3622                           	line	60
  3623                           	
  3624  054D                     l5123:	
  3625  054D  3089               	movlw	(089h)
  3626  054E  076C               	addwf	(___ftdiv@sign),w
  3627  054F  00E3               	movwf	(??___ftdiv+0)+0
  3628  0550  0863               	movf	0+(??___ftdiv+0)+0,w
  3629  0551  02EB               	subwf	(___ftdiv@exp),f
  3630                           	line	61
  3631                           	
  3632  0552                     l5125:	
  3633  0552  0860               	movf	(___ftdiv@f1),w
  3634  0553  00E3               	movwf	((??___ftdiv+0)+0)
  3635  0554  0861               	movf	(___ftdiv@f1+1),w
  3636  0555  00E4               	movwf	((??___ftdiv+0)+0+1)
  3637  0556  0862               	movf	(___ftdiv@f1+2),w
  3638  0557  00E5               	movwf	((??___ftdiv+0)+0+2)
  3639  0558  3010               	movlw	010h
  3640  0559                     u3205:
  3641  0559  1003               	clrc
  3642  055A  0CE5               	rrf	(??___ftdiv+0)+2,f
  3643  055B  0CE4               	rrf	(??___ftdiv+0)+1,f
  3644  055C  0CE3               	rrf	(??___ftdiv+0)+0,f
  3645  055D                     u3200:
  3646  055D  3EFF               	addlw	-1
  3647  055E  1D03               	skipz
  3648  055F  2D59               	goto	u3205
  3649  0560  0863               	movf	0+(??___ftdiv+0)+0,w
  3650  0561  00E6               	movwf	(??___ftdiv+3)+0
  3651  0562  0866               	movf	(??___ftdiv+3)+0,w
  3652  0563  00EC               	movwf	(___ftdiv@sign)
  3653                           	line	62
  3654                           	
  3655  0564                     l5127:	
  3656  0564  085D               	movf	(___ftdiv@f2),w
  3657  0565  00E3               	movwf	((??___ftdiv+0)+0)
  3658  0566  085E               	movf	(___ftdiv@f2+1),w
  3659  0567  00E4               	movwf	((??___ftdiv+0)+0+1)
  3660  0568  085F               	movf	(___ftdiv@f2+2),w
  3661  0569  00E5               	movwf	((??___ftdiv+0)+0+2)
  3662  056A  3010               	movlw	010h
  3663  056B                     u3215:
  3664  056B  1003               	clrc
  3665  056C  0CE5               	rrf	(??___ftdiv+0)+2,f
  3666  056D  0CE4               	rrf	(??___ftdiv+0)+1,f
  3667  056E  0CE3               	rrf	(??___ftdiv+0)+0,f
  3668  056F                     u3210:
  3669  056F  3EFF               	addlw	-1
  3670  0570  1D03               	skipz
  3671  0571  2D6B               	goto	u3215
  3672  0572  0863               	movf	0+(??___ftdiv+0)+0,w
  3673  0573  00E6               	movwf	(??___ftdiv+3)+0
  3674  0574  0866               	movf	(??___ftdiv+3)+0,w
  3675  0575  06EC               	xorwf	(___ftdiv@sign),f
  3676                           	line	63
  3677                           	
  3678  0576                     l5129:	
  3679  0576  3080               	movlw	(080h)
  3680  0577  00E3               	movwf	(??___ftdiv+0)+0
  3681  0578  0863               	movf	(??___ftdiv+0)+0,w
  3682  0579  05EC               	andwf	(___ftdiv@sign),f
  3683                           	line	64
  3684                           	
  3685  057A                     l5131:	
  3686  057A  17E1               	bsf	(___ftdiv@f1)+(15/8),(15)&7
  3687                           	line	65
  3688  057B  30FF               	movlw	0FFh
  3689  057C  05E0               	andwf	(___ftdiv@f1),f
  3690  057D  30FF               	movlw	0FFh
  3691  057E  05E1               	andwf	(___ftdiv@f1+1),f
  3692  057F  3000               	movlw	0
  3693  0580  05E2               	andwf	(___ftdiv@f1+2),f
  3694                           	line	66
  3695                           	
  3696  0581                     l5133:	
  3697  0581  17DE               	bsf	(___ftdiv@f2)+(15/8),(15)&7
  3698                           	line	67
  3699  0582  30FF               	movlw	0FFh
  3700  0583  05DD               	andwf	(___ftdiv@f2),f
  3701  0584  30FF               	movlw	0FFh
  3702  0585  05DE               	andwf	(___ftdiv@f2+1),f
  3703  0586  3000               	movlw	0
  3704  0587  05DF               	andwf	(___ftdiv@f2+2),f
  3705                           	line	68
  3706  0588  3018               	movlw	(018h)
  3707  0589  00E3               	movwf	(??___ftdiv+0)+0
  3708  058A  0863               	movf	(??___ftdiv+0)+0,w
  3709  058B  00E7               	movwf	(___ftdiv@cntr)
  3710  058C  2D8D               	goto	l5135
  3711                           	line	69
  3712                           	
  3713  058D                     l2942:	
  3714                           	line	70
  3715                           	
  3716  058D                     l5135:	
  3717  058D  3001               	movlw	01h
  3718  058E                     u3225:
  3719  058E  1003               	clrc
  3720  058F  0DE8               	rlf	(___ftdiv@f3),f
  3721  0590  0DE9               	rlf	(___ftdiv@f3+1),f
  3722  0591  0DEA               	rlf	(___ftdiv@f3+2),f
  3723  0592  3EFF               	addlw	-1
  3724  0593  1D03               	skipz
  3725  0594  2D8E               	goto	u3225
  3726                           	line	71
  3727                           	
  3728  0595                     l5137:	
  3729  0595  085F               	movf	(___ftdiv@f2+2),w
  3730  0596  0262               	subwf	(___ftdiv@f1+2),w
  3731  0597  1D03               	skipz
  3732  0598  2D9F               	goto	u3235
  3733  0599  085E               	movf	(___ftdiv@f2+1),w
  3734  059A  0261               	subwf	(___ftdiv@f1+1),w
  3735  059B  1D03               	skipz
  3736  059C  2D9F               	goto	u3235
  3737  059D  085D               	movf	(___ftdiv@f2),w
  3738  059E  0260               	subwf	(___ftdiv@f1),w
  3739  059F                     u3235:
  3740  059F  1C03               	skipc
  3741  05A0  2DA2               	goto	u3231
  3742  05A1  2DA3               	goto	u3230
  3743  05A2                     u3231:
  3744  05A2  2DAF               	goto	l5143
  3745  05A3                     u3230:
  3746                           	line	72
  3747                           	
  3748  05A3                     l5139:	
  3749  05A3  085D               	movf	(___ftdiv@f2),w
  3750  05A4  02E0               	subwf	(___ftdiv@f1),f
  3751  05A5  085E               	movf	(___ftdiv@f2+1),w
  3752  05A6  1C03               	skipc
  3753  05A7  0F5E               	incfsz	(___ftdiv@f2+1),w
  3754  05A8  02E1               	subwf	(___ftdiv@f1+1),f
  3755  05A9  085F               	movf	(___ftdiv@f2+2),w
  3756  05AA  1C03               	skipc
  3757  05AB  0A5F               	incf	(___ftdiv@f2+2),w
  3758  05AC  02E2               	subwf	(___ftdiv@f1+2),f
  3759                           	line	73
  3760                           	
  3761  05AD                     l5141:	
  3762  05AD  1468               	bsf	(___ftdiv@f3)+(0/8),(0)&7
  3763  05AE  2DAF               	goto	l5143
  3764                           	line	74
  3765                           	
  3766  05AF                     l2943:	
  3767                           	line	75
  3768                           	
  3769  05AF                     l5143:	
  3770  05AF  3001               	movlw	01h
  3771  05B0                     u3245:
  3772  05B0  1003               	clrc
  3773  05B1  0DE0               	rlf	(___ftdiv@f1),f
  3774  05B2  0DE1               	rlf	(___ftdiv@f1+1),f
  3775  05B3  0DE2               	rlf	(___ftdiv@f1+2),f
  3776  05B4  3EFF               	addlw	-1
  3777  05B5  1D03               	skipz
  3778  05B6  2DB0               	goto	u3245
  3779                           	line	76
  3780                           	
  3781  05B7                     l5145:	
  3782  05B7  3001               	movlw	low(01h)
  3783  05B8  02E7               	subwf	(___ftdiv@cntr),f
  3784  05B9  1D03               	btfss	status,2
  3785  05BA  2DBC               	goto	u3251
  3786  05BB  2DBD               	goto	u3250
  3787  05BC                     u3251:
  3788  05BC  2D8D               	goto	l5135
  3789  05BD                     u3250:
  3790  05BD  2DBE               	goto	l5147
  3791                           	
  3792  05BE                     l2944:	
  3793                           	line	77
  3794                           	
  3795  05BE                     l5147:	
  3796  05BE  0868               	movf	(___ftdiv@f3),w
  3797  05BF  00F4               	movwf	(?___ftpack)
  3798  05C0  0869               	movf	(___ftdiv@f3+1),w
  3799  05C1  00F5               	movwf	(?___ftpack+1)
  3800  05C2  086A               	movf	(___ftdiv@f3+2),w
  3801  05C3  00F6               	movwf	(?___ftpack+2)
  3802  05C4  086B               	movf	(___ftdiv@exp),w
  3803  05C5  00E3               	movwf	(??___ftdiv+0)+0
  3804  05C6  0863               	movf	(??___ftdiv+0)+0,w
  3805  05C7  00F7               	movwf	0+(?___ftpack)+03h
  3806  05C8  086C               	movf	(___ftdiv@sign),w
  3807  05C9  00E4               	movwf	(??___ftdiv+1)+0
  3808  05CA  0864               	movf	(??___ftdiv+1)+0,w
  3809  05CB  00F8               	movwf	0+(?___ftpack)+04h
  3810  05CC  120A  158A  277F   	fcall	___ftpack
              120A  118A         
  3811  05D1  0874               	movf	(0+(?___ftpack)),w
  3812  05D2  1283               	bcf	status, 5	;RP0=0, select bank0
  3813  05D3  1303               	bcf	status, 6	;RP1=0, select bank0
  3814  05D4  00DD               	movwf	(?___ftdiv)
  3815  05D5  0875               	movf	(1+(?___ftpack)),w
  3816  05D6  00DE               	movwf	(?___ftdiv+1)
  3817  05D7  0876               	movf	(2+(?___ftpack)),w
  3818  05D8  00DF               	movwf	(?___ftdiv+2)
  3819  05D9  2DDA               	goto	l2940
  3820                           	
  3821  05DA                     l5149:	
  3822                           	line	78
  3823                           	
  3824  05DA                     l2940:	
  3825  05DA  0008               	return
  3826                           	opt stack 0
  3827                           GLOBAL	__end_of___ftdiv
  3828  05DB                     	__end_of___ftdiv:
  3829 ;; =============== function ___ftdiv ends ============
  3830                           
  3831                           	signat	___ftdiv,8315
  3832                           	global	___ftadd
  3833                           psect	text479,local,class=CODE,delta=2
  3834                           global __ptext479
  3835  02DF                     __ptext479:
  3836                           
  3837 ;; *************** function ___ftadd *****************
  3838 ;; Defined at:
  3839 ;;		line 87 in file "C:\Program Files (x86)\HI-TECH Software\PICC\9.82\sources\ftadd.c"
  3840 ;; Parameters:    Size  Location     Type
  3841 ;;  f1              3   32[BANK0 ] float 
  3842 ;;  f2              3   35[BANK0 ] float 
  3843 ;; Auto vars:     Size  Location     Type
  3844 ;;  exp1            1   44[BANK0 ] unsigned char 
  3845 ;;  exp2            1   43[BANK0 ] unsigned char 
  3846 ;;  sign            1   42[BANK0 ] unsigned char 
  3847 ;; Return value:  Size  Location     Type
  3848 ;;                  3   32[BANK0 ] float 
  3849 ;; Registers used:
  3850 ;;		wreg, status,2, status,0, pclath, cstack
  3851 ;; Tracked objects:
  3852 ;;		On entry : 0/0
  3853 ;;		On exit  : 0/0
  3854 ;;		Unchanged: 0/0
  3855 ;; Data sizes:     COMMON   BANK0   BANK1   BANK3   BANK2
  3856 ;;      Params:         0       6       0       0       0
  3857 ;;      Locals:         0       3       0       0       0
  3858 ;;      Temps:          0       4       0       0       0
  3859 ;;      Totals:         0      13       0       0       0
  3860 ;;Total ram usage:       13 bytes
  3861 ;; Hardware stack levels used:    1
  3862 ;; Hardware stack levels required when called:    2
  3863 ;; This function calls:
  3864 ;;		___ftpack
  3865 ;; This function is called by:
  3866 ;;		_main
  3867 ;;		_Rs232Conf
  3868 ;;		___ftsub
  3869 ;; This function uses a non-reentrant model
  3870 ;;
  3871                           psect	text479
  3872                           	file	"C:\Program Files (x86)\HI-TECH Software\PICC\9.82\sources\ftadd.c"
  3873                           	line	87
  3874                           	global	__size_of___ftadd
  3875  0146                     	__size_of___ftadd	equ	__end_of___ftadd-___ftadd
  3876                           	
  3877  02DF                     ___ftadd:	
  3878                           	opt	stack 5
  3879                           ; Regs used in ___ftadd: [wreg+status,2+status,0+pclath+cstack]
  3880                           	line	90
  3881                           	
  3882  02DF                     l5039:	
  3883  02DF  1283               	bcf	status, 5	;RP0=0, select bank0
  3884  02E0  1303               	bcf	status, 6	;RP1=0, select bank0
  3885  02E1  0840               	movf	(___ftadd@f1),w
  3886  02E2  00C6               	movwf	((??___ftadd+0)+0)
  3887  02E3  0841               	movf	(___ftadd@f1+1),w
  3888  02E4  00C7               	movwf	((??___ftadd+0)+0+1)
  3889  02E5  0842               	movf	(___ftadd@f1+2),w
  3890  02E6  00C8               	movwf	((??___ftadd+0)+0+2)
  3891  02E7  1003               	clrc
  3892  02E8  0D47               	rlf	(??___ftadd+0)+1,w
  3893  02E9  0D48               	rlf	(??___ftadd+0)+2,w
  3894  02EA  00C9               	movwf	(??___ftadd+3)+0
  3895  02EB  0849               	movf	(??___ftadd+3)+0,w
  3896  02EC  00CC               	movwf	(___ftadd@exp1)
  3897                           	line	91
  3898  02ED  0843               	movf	(___ftadd@f2),w
  3899  02EE  00C6               	movwf	((??___ftadd+0)+0)
  3900  02EF  0844               	movf	(___ftadd@f2+1),w
  3901  02F0  00C7               	movwf	((??___ftadd+0)+0+1)
  3902  02F1  0845               	movf	(___ftadd@f2+2),w
  3903  02F2  00C8               	movwf	((??___ftadd+0)+0+2)
  3904  02F3  1003               	clrc
  3905  02F4  0D47               	rlf	(??___ftadd+0)+1,w
  3906  02F5  0D48               	rlf	(??___ftadd+0)+2,w
  3907  02F6  00C9               	movwf	(??___ftadd+3)+0
  3908  02F7  0849               	movf	(??___ftadd+3)+0,w
  3909  02F8  00CB               	movwf	(___ftadd@exp2)
  3910                           	line	92
  3911                           	
  3912  02F9                     l5041:	
  3913  02F9  084C               	movf	(___ftadd@exp1),w
  3914  02FA  1D03               	skipz
  3915  02FB  2AFD               	goto	u2940
  3916  02FC  2B0E               	goto	l5047
  3917  02FD                     u2940:
  3918                           	
  3919  02FD                     l5043:	
  3920  02FD  084B               	movf	(___ftadd@exp2),w
  3921  02FE  024C               	subwf	(___ftadd@exp1),w
  3922  02FF  1803               	skipnc
  3923  0300  2B02               	goto	u2951
  3924  0301  2B03               	goto	u2950
  3925  0302                     u2951:
  3926  0302  2B16               	goto	l5051
  3927  0303                     u2950:
  3928                           	
  3929  0303                     l5045:	
  3930  0303  034C               	decf	(___ftadd@exp1),w
  3931  0304  3AFF               	xorlw	0ffh
  3932  0305  074B               	addwf	(___ftadd@exp2),w
  3933  0306  00C6               	movwf	(??___ftadd+0)+0
  3934  0307  3019               	movlw	(019h)
  3935  0308  0246               	subwf	0+(??___ftadd+0)+0,w
  3936  0309  1C03               	skipc
  3937  030A  2B0C               	goto	u2961
  3938  030B  2B0D               	goto	u2960
  3939  030C                     u2961:
  3940  030C  2B16               	goto	l5051
  3941  030D                     u2960:
  3942  030D  2B0E               	goto	l5047
  3943                           	
  3944  030E                     l2897:	
  3945                           	line	93
  3946                           	
  3947  030E                     l5047:	
  3948  030E  0843               	movf	(___ftadd@f2),w
  3949  030F  00C0               	movwf	(?___ftadd)
  3950  0310  0844               	movf	(___ftadd@f2+1),w
  3951  0311  00C1               	movwf	(?___ftadd+1)
  3952  0312  0845               	movf	(___ftadd@f2+2),w
  3953  0313  00C2               	movwf	(?___ftadd+2)
  3954  0314  2C24               	goto	l2898
  3955                           	
  3956  0315                     l5049:	
  3957  0315  2C24               	goto	l2898
  3958                           	
  3959  0316                     l2895:	
  3960                           	line	94
  3961                           	
  3962  0316                     l5051:	
  3963  0316  084B               	movf	(___ftadd@exp2),w
  3964  0317  1D03               	skipz
  3965  0318  2B1A               	goto	u2970
  3966  0319  2B2A               	goto	l2901
  3967  031A                     u2970:
  3968                           	
  3969  031A                     l5053:	
  3970  031A  084C               	movf	(___ftadd@exp1),w
  3971  031B  024B               	subwf	(___ftadd@exp2),w
  3972  031C  1803               	skipnc
  3973  031D  2B1F               	goto	u2981
  3974  031E  2B20               	goto	u2980
  3975  031F                     u2981:
  3976  031F  2B2B               	goto	l5057
  3977  0320                     u2980:
  3978                           	
  3979  0320                     l5055:	
  3980  0320  034B               	decf	(___ftadd@exp2),w
  3981  0321  3AFF               	xorlw	0ffh
  3982  0322  074C               	addwf	(___ftadd@exp1),w
  3983  0323  00C6               	movwf	(??___ftadd+0)+0
  3984  0324  3019               	movlw	(019h)
  3985  0325  0246               	subwf	0+(??___ftadd+0)+0,w
  3986  0326  1C03               	skipc
  3987  0327  2B29               	goto	u2991
  3988  0328  2B2A               	goto	u2990
  3989  0329                     u2991:
  3990  0329  2B2B               	goto	l5057
  3991  032A                     u2990:
  3992                           	
  3993  032A                     l2901:	
  3994                           	line	95
  3995  032A  2C24               	goto	l2898
  3996                           	
  3997  032B                     l2899:	
  3998                           	line	96
  3999                           	
  4000  032B                     l5057:	
  4001  032B  3006               	movlw	(06h)
  4002  032C  00C6               	movwf	(??___ftadd+0)+0
  4003  032D  0846               	movf	(??___ftadd+0)+0,w
  4004  032E  00CA               	movwf	(___ftadd@sign)
  4005                           	line	97
  4006                           	
  4007  032F                     l5059:	
  4008  032F  1FC2               	btfss	(___ftadd@f1+2),(23)&7
  4009  0330  2B32               	goto	u3001
  4010  0331  2B33               	goto	u3000
  4011  0332                     u3001:
  4012  0332  2B34               	goto	l2902
  4013  0333                     u3000:
  4014                           	line	98
  4015                           	
  4016  0333                     l5061:	
  4017  0333  17CA               	bsf	(___ftadd@sign)+(7/8),(7)&7
  4018                           	
  4019  0334                     l2902:	
  4020                           	line	99
  4021  0334  1FC5               	btfss	(___ftadd@f2+2),(23)&7
  4022  0335  2B37               	goto	u3011
  4023  0336  2B38               	goto	u3010
  4024  0337                     u3011:
  4025  0337  2B39               	goto	l2903
  4026  0338                     u3010:
  4027                           	line	100
  4028                           	
  4029  0338                     l5063:	
  4030  0338  174A               	bsf	(___ftadd@sign)+(6/8),(6)&7
  4031                           	
  4032  0339                     l2903:	
  4033                           	line	101
  4034  0339  17C1               	bsf	(___ftadd@f1)+(15/8),(15)&7
  4035                           	line	102
  4036                           	
  4037  033A                     l5065:	
  4038  033A  30FF               	movlw	0FFh
  4039  033B  05C0               	andwf	(___ftadd@f1),f
  4040  033C  30FF               	movlw	0FFh
  4041  033D  05C1               	andwf	(___ftadd@f1+1),f
  4042  033E  3000               	movlw	0
  4043  033F  05C2               	andwf	(___ftadd@f1+2),f
  4044                           	line	103
  4045                           	
  4046  0340                     l5067:	
  4047  0340  17C4               	bsf	(___ftadd@f2)+(15/8),(15)&7
  4048                           	line	104
  4049  0341  30FF               	movlw	0FFh
  4050  0342  05C3               	andwf	(___ftadd@f2),f
  4051  0343  30FF               	movlw	0FFh
  4052  0344  05C4               	andwf	(___ftadd@f2+1),f
  4053  0345  3000               	movlw	0
  4054  0346  05C5               	andwf	(___ftadd@f2+2),f
  4055                           	line	106
  4056  0347  084B               	movf	(___ftadd@exp2),w
  4057  0348  024C               	subwf	(___ftadd@exp1),w
  4058  0349  1803               	skipnc
  4059  034A  2B4C               	goto	u3021
  4060  034B  2B4D               	goto	u3020
  4061  034C                     u3021:
  4062  034C  2B7E               	goto	l5079
  4063  034D                     u3020:
  4064  034D  2B4E               	goto	l5069
  4065                           	line	109
  4066                           	
  4067  034E                     l2905:	
  4068                           	line	110
  4069                           	
  4070  034E                     l5069:	
  4071  034E  3001               	movlw	01h
  4072  034F                     u3035:
  4073  034F  1003               	clrc
  4074  0350  0DC3               	rlf	(___ftadd@f2),f
  4075  0351  0DC4               	rlf	(___ftadd@f2+1),f
  4076  0352  0DC5               	rlf	(___ftadd@f2+2),f
  4077  0353  3EFF               	addlw	-1
  4078  0354  1D03               	skipz
  4079  0355  2B4F               	goto	u3035
  4080                           	line	111
  4081  0356  3001               	movlw	low(01h)
  4082  0357  02CB               	subwf	(___ftadd@exp2),f
  4083                           	line	112
  4084                           	
  4085  0358                     l5071:	
  4086  0358  084B               	movf	(___ftadd@exp2),w
  4087  0359  064C               	xorwf	(___ftadd@exp1),w
  4088  035A  1903               	skipnz
  4089  035B  2B5D               	goto	u3041
  4090  035C  2B5E               	goto	u3040
  4091  035D                     u3041:
  4092  035D  2B76               	goto	l5077
  4093  035E                     u3040:
  4094                           	
  4095  035E                     l5073:	
  4096  035E  3001               	movlw	low(01h)
  4097  035F  02CA               	subwf	(___ftadd@sign),f
  4098  0360  084A               	movf	((___ftadd@sign)),w
  4099  0361  3907               	andlw	07h
  4100  0362  1D03               	btfss	status,2
  4101  0363  2B65               	goto	u3051
  4102  0364  2B66               	goto	u3050
  4103  0365                     u3051:
  4104  0365  2B4E               	goto	l5069
  4105  0366                     u3050:
  4106  0366  2B76               	goto	l5077
  4107                           	
  4108  0367                     l2907:	
  4109  0367  2B76               	goto	l5077
  4110                           	
  4111  0368                     l2908:	
  4112                           	line	113
  4113  0368  2B76               	goto	l5077
  4114                           	
  4115  0369                     l2910:	
  4116                           	line	114
  4117                           	
  4118  0369                     l5075:	
  4119  0369  3001               	movlw	01h
  4120  036A                     u3065:
  4121  036A  1003               	clrc
  4122  036B  0CC2               	rrf	(___ftadd@f1+2),f
  4123  036C  0CC1               	rrf	(___ftadd@f1+1),f
  4124  036D  0CC0               	rrf	(___ftadd@f1),f
  4125  036E  3EFF               	addlw	-1
  4126  036F  1D03               	skipz
  4127  0370  2B6A               	goto	u3065
  4128                           
  4129                           	line	115
  4130  0371  3001               	movlw	(01h)
  4131  0372  00C6               	movwf	(??___ftadd+0)+0
  4132  0373  0846               	movf	(??___ftadd+0)+0,w
  4133  0374  07CC               	addwf	(___ftadd@exp1),f
  4134  0375  2B76               	goto	l5077
  4135                           	line	116
  4136                           	
  4137  0376                     l2909:	
  4138                           	line	113
  4139                           	
  4140  0376                     l5077:	
  4141  0376  084C               	movf	(___ftadd@exp1),w
  4142  0377  064B               	xorwf	(___ftadd@exp2),w
  4143  0378  1D03               	skipz
  4144  0379  2B7B               	goto	u3071
  4145  037A  2B7C               	goto	u3070
  4146  037B                     u3071:
  4147  037B  2B69               	goto	l5075
  4148  037C                     u3070:
  4149  037C  2BB5               	goto	l2912
  4150                           	
  4151  037D                     l2911:	
  4152                           	line	117
  4153  037D  2BB5               	goto	l2912
  4154                           	
  4155  037E                     l2904:	
  4156                           	
  4157  037E                     l5079:	
  4158  037E  084C               	movf	(___ftadd@exp1),w
  4159  037F  024B               	subwf	(___ftadd@exp2),w
  4160  0380  1803               	skipnc
  4161  0381  2B83               	goto	u3081
  4162  0382  2B84               	goto	u3080
  4163  0383                     u3081:
  4164  0383  2BB5               	goto	l2912
  4165  0384                     u3080:
  4166  0384  2B85               	goto	l5081
  4167                           	line	120
  4168                           	
  4169  0385                     l2914:	
  4170                           	line	121
  4171                           	
  4172  0385                     l5081:	
  4173  0385  3001               	movlw	01h
  4174  0386                     u3095:
  4175  0386  1003               	clrc
  4176  0387  0DC0               	rlf	(___ftadd@f1),f
  4177  0388  0DC1               	rlf	(___ftadd@f1+1),f
  4178  0389  0DC2               	rlf	(___ftadd@f1+2),f
  4179  038A  3EFF               	addlw	-1
  4180  038B  1D03               	skipz
  4181  038C  2B86               	goto	u3095
  4182                           	line	122
  4183  038D  3001               	movlw	low(01h)
  4184  038E  02CC               	subwf	(___ftadd@exp1),f
  4185                           	line	123
  4186                           	
  4187  038F                     l5083:	
  4188  038F  084B               	movf	(___ftadd@exp2),w
  4189  0390  064C               	xorwf	(___ftadd@exp1),w
  4190  0391  1903               	skipnz
  4191  0392  2B94               	goto	u3101
  4192  0393  2B95               	goto	u3100
  4193  0394                     u3101:
  4194  0394  2BAD               	goto	l5089
  4195  0395                     u3100:
  4196                           	
  4197  0395                     l5085:	
  4198  0395  3001               	movlw	low(01h)
  4199  0396  02CA               	subwf	(___ftadd@sign),f
  4200  0397  084A               	movf	((___ftadd@sign)),w
  4201  0398  3907               	andlw	07h
  4202  0399  1D03               	btfss	status,2
  4203  039A  2B9C               	goto	u3111
  4204  039B  2B9D               	goto	u3110
  4205  039C                     u3111:
  4206  039C  2B85               	goto	l5081
  4207  039D                     u3110:
  4208  039D  2BAD               	goto	l5089
  4209                           	
  4210  039E                     l2916:	
  4211  039E  2BAD               	goto	l5089
  4212                           	
  4213  039F                     l2917:	
  4214                           	line	124
  4215  039F  2BAD               	goto	l5089
  4216                           	
  4217  03A0                     l2919:	
  4218                           	line	125
  4219                           	
  4220  03A0                     l5087:	
  4221  03A0  3001               	movlw	01h
  4222  03A1                     u3125:
  4223  03A1  1003               	clrc
  4224  03A2  0CC5               	rrf	(___ftadd@f2+2),f
  4225  03A3  0CC4               	rrf	(___ftadd@f2+1),f
  4226  03A4  0CC3               	rrf	(___ftadd@f2),f
  4227  03A5  3EFF               	addlw	-1
  4228  03A6  1D03               	skipz
  4229  03A7  2BA1               	goto	u3125
  4230                           
  4231                           	line	126
  4232  03A8  3001               	movlw	(01h)
  4233  03A9  00C6               	movwf	(??___ftadd+0)+0
  4234  03AA  0846               	movf	(??___ftadd+0)+0,w
  4235  03AB  07CB               	addwf	(___ftadd@exp2),f
  4236  03AC  2BAD               	goto	l5089
  4237                           	line	127
  4238                           	
  4239  03AD                     l2918:	
  4240                           	line	124
  4241                           	
  4242  03AD                     l5089:	
  4243  03AD  084C               	movf	(___ftadd@exp1),w
  4244  03AE  064B               	xorwf	(___ftadd@exp2),w
  4245  03AF  1D03               	skipz
  4246  03B0  2BB2               	goto	u3131
  4247  03B1  2BB3               	goto	u3130
  4248  03B2                     u3131:
  4249  03B2  2BA0               	goto	l5087
  4250  03B3                     u3130:
  4251  03B3  2BB5               	goto	l2912
  4252                           	
  4253  03B4                     l2920:	
  4254  03B4  2BB5               	goto	l2912
  4255                           	line	128
  4256                           	
  4257  03B5                     l2913:	
  4258                           	line	129
  4259                           	
  4260  03B5                     l2912:	
  4261  03B5  1FCA               	btfss	(___ftadd@sign),(7)&7
  4262  03B6  2BB8               	goto	u3141
  4263  03B7  2BB9               	goto	u3140
  4264  03B8                     u3141:
  4265  03B8  2BCA               	goto	l5093
  4266  03B9                     u3140:
  4267                           	line	131
  4268                           	
  4269  03B9                     l5091:	
  4270  03B9  30FF               	movlw	0FFh
  4271  03BA  06C0               	xorwf	(___ftadd@f1),f
  4272  03BB  30FF               	movlw	0FFh
  4273  03BC  06C1               	xorwf	(___ftadd@f1+1),f
  4274  03BD  30FF               	movlw	0FFh
  4275  03BE  06C2               	xorwf	(___ftadd@f1+2),f
  4276                           	line	132
  4277  03BF  3001               	movlw	01h
  4278  03C0  07C0               	addwf	(___ftadd@f1),f
  4279  03C1  3000               	movlw	0
  4280  03C2  1803               	skipnc
  4281  03C3  3001               movlw 1
  4282  03C4  07C1               	addwf	(___ftadd@f1+1),f
  4283  03C5  3000               	movlw	0
  4284  03C6  1803               	skipnc
  4285  03C7  3001               movlw 1
  4286  03C8  07C2               	addwf	(___ftadd@f1+2),f
  4287  03C9  2BCA               	goto	l5093
  4288                           	line	133
  4289                           	
  4290  03CA                     l2921:	
  4291                           	line	134
  4292                           	
  4293  03CA                     l5093:	
  4294  03CA  1F4A               	btfss	(___ftadd@sign),(6)&7
  4295  03CB  2BCD               	goto	u3151
  4296  03CC  2BCE               	goto	u3150
  4297  03CD                     u3151:
  4298  03CD  2BDF               	goto	l5097
  4299  03CE                     u3150:
  4300                           	line	136
  4301                           	
  4302  03CE                     l5095:	
  4303  03CE  30FF               	movlw	0FFh
  4304  03CF  06C3               	xorwf	(___ftadd@f2),f
  4305  03D0  30FF               	movlw	0FFh
  4306  03D1  06C4               	xorwf	(___ftadd@f2+1),f
  4307  03D2  30FF               	movlw	0FFh
  4308  03D3  06C5               	xorwf	(___ftadd@f2+2),f
  4309                           	line	137
  4310  03D4  3001               	movlw	01h
  4311  03D5  07C3               	addwf	(___ftadd@f2),f
  4312  03D6  3000               	movlw	0
  4313  03D7  1803               	skipnc
  4314  03D8  3001               movlw 1
  4315  03D9  07C4               	addwf	(___ftadd@f2+1),f
  4316  03DA  3000               	movlw	0
  4317  03DB  1803               	skipnc
  4318  03DC  3001               movlw 1
  4319  03DD  07C5               	addwf	(___ftadd@f2+2),f
  4320  03DE  2BDF               	goto	l5097
  4321                           	line	138
  4322                           	
  4323  03DF                     l2922:	
  4324                           	line	139
  4325                           	
  4326  03DF                     l5097:	
  4327  03DF  01CA               	clrf	(___ftadd@sign)
  4328                           	line	140
  4329  03E0  0840               	movf	(___ftadd@f1),w
  4330  03E1  07C3               	addwf	(___ftadd@f2),f
  4331  03E2  0841               	movf	(___ftadd@f1+1),w
  4332  03E3  1103               	clrz
  4333  03E4  1803               	skipnc
  4334  03E5  0A41               	incf	(___ftadd@f1+1),w
  4335  03E6  1903               	skipnz
  4336  03E7  2BE9               	goto	u3161
  4337  03E8  07C4               	addwf	(___ftadd@f2+1),f
  4338  03E9                     u3161:
  4339  03E9  0842               	movf	(___ftadd@f1+2),w
  4340  03EA  1103               	clrz
  4341  03EB  1803               	skipnc
  4342  03EC  0A42               	incf	(___ftadd@f1+2),w
  4343  03ED  1903               	skipnz
  4344  03EE  2BF0               	goto	u3162
  4345  03EF  07C5               	addwf	(___ftadd@f2+2),f
  4346  03F0                     u3162:
  4347                           
  4348                           	line	141
  4349                           	
  4350  03F0                     l5099:	
  4351  03F0  1FC5               	btfss	(___ftadd@f2+2),(23)&7
  4352  03F1  2BF3               	goto	u3171
  4353  03F2  2BF4               	goto	u3170
  4354  03F3                     u3171:
  4355  03F3  2C08               	goto	l5105
  4356  03F4                     u3170:
  4357                           	line	142
  4358                           	
  4359  03F4                     l5101:	
  4360  03F4  30FF               	movlw	0FFh
  4361  03F5  06C3               	xorwf	(___ftadd@f2),f
  4362  03F6  30FF               	movlw	0FFh
  4363  03F7  06C4               	xorwf	(___ftadd@f2+1),f
  4364  03F8  30FF               	movlw	0FFh
  4365  03F9  06C5               	xorwf	(___ftadd@f2+2),f
  4366                           	line	143
  4367  03FA  3001               	movlw	01h
  4368  03FB  07C3               	addwf	(___ftadd@f2),f
  4369  03FC  3000               	movlw	0
  4370  03FD  1803               	skipnc
  4371  03FE  3001               movlw 1
  4372  03FF  07C4               	addwf	(___ftadd@f2+1),f
  4373  0400  3000               	movlw	0
  4374  0401  1803               	skipnc
  4375  0402  3001               movlw 1
  4376  0403  07C5               	addwf	(___ftadd@f2+2),f
  4377                           	line	144
  4378                           	
  4379  0404                     l5103:	
  4380  0404  01CA               	clrf	(___ftadd@sign)
  4381  0405  1403               	bsf	status,0
  4382  0406  0DCA               	rlf	(___ftadd@sign),f
  4383  0407  2C08               	goto	l5105
  4384                           	line	145
  4385                           	
  4386  0408                     l2923:	
  4387                           	line	146
  4388                           	
  4389  0408                     l5105:	
  4390  0408  0843               	movf	(___ftadd@f2),w
  4391  0409  00F4               	movwf	(?___ftpack)
  4392  040A  0844               	movf	(___ftadd@f2+1),w
  4393  040B  00F5               	movwf	(?___ftpack+1)
  4394  040C  0845               	movf	(___ftadd@f2+2),w
  4395  040D  00F6               	movwf	(?___ftpack+2)
  4396  040E  084C               	movf	(___ftadd@exp1),w
  4397  040F  00C6               	movwf	(??___ftadd+0)+0
  4398  0410  0846               	movf	(??___ftadd+0)+0,w
  4399  0411  00F7               	movwf	0+(?___ftpack)+03h
  4400  0412  084A               	movf	(___ftadd@sign),w
  4401  0413  00C7               	movwf	(??___ftadd+1)+0
  4402  0414  0847               	movf	(??___ftadd+1)+0,w
  4403  0415  00F8               	movwf	0+(?___ftpack)+04h
  4404  0416  120A  158A  277F   	fcall	___ftpack
              120A  118A         
  4405  041B  0874               	movf	(0+(?___ftpack)),w
  4406  041C  1283               	bcf	status, 5	;RP0=0, select bank0
  4407  041D  1303               	bcf	status, 6	;RP1=0, select bank0
  4408  041E  00C0               	movwf	(?___ftadd)
  4409  041F  0875               	movf	(1+(?___ftpack)),w
  4410  0420  00C1               	movwf	(?___ftadd+1)
  4411  0421  0876               	movf	(2+(?___ftpack)),w
  4412  0422  00C2               	movwf	(?___ftadd+2)
  4413  0423  2C24               	goto	l2898
  4414                           	
  4415  0424                     l5107:	
  4416                           	line	148
  4417                           	
  4418  0424                     l2898:	
  4419  0424  0008               	return
  4420                           	opt stack 0
  4421                           GLOBAL	__end_of___ftadd
  4422  0425                     	__end_of___ftadd:
  4423 ;; =============== function ___ftadd ends ============
  4424                           
  4425                           	signat	___ftadd,8315
  4426                           	global	___ftge
  4427                           psect	text480,local,class=CODE,delta=2
  4428                           global __ptext480
  4429  0F0F                     __ptext480:
  4430                           
  4431 ;; *************** function ___ftge *****************
  4432 ;; Defined at:
  4433 ;;		line 5 in file "C:\Program Files (x86)\HI-TECH Software\PICC\9.82\sources\ftge.c"
  4434 ;; Parameters:    Size  Location     Type
  4435 ;;  ff1             3    4[COMMON] float 
  4436 ;;  ff2             3    7[COMMON] float 
  4437 ;; Auto vars:     Size  Location     Type
  4438 ;;		None
  4439 ;; Return value:  Size  Location     Type
  4440 ;;		None               void
  4441 ;; Registers used:
  4442 ;;		wreg, status,2, status,0
  4443 ;; Tracked objects:
  4444 ;;		On entry : 0/0
  4445 ;;		On exit  : 0/0
  4446 ;;		Unchanged: 0/0
  4447 ;; Data sizes:     COMMON   BANK0   BANK1   BANK3   BANK2
  4448 ;;      Params:         6       0       0       0       0
  4449 ;;      Locals:         0       0       0       0       0
  4450 ;;      Temps:          0       6       0       0       0
  4451 ;;      Totals:         6       6       0       0       0
  4452 ;;Total ram usage:       12 bytes
  4453 ;; Hardware stack levels used:    1
  4454 ;; Hardware stack levels required when called:    1
  4455 ;; This function calls:
  4456 ;;		Nothing
  4457 ;; This function is called by:
  4458 ;;		_main
  4459 ;; This function uses a non-reentrant model
  4460 ;;
  4461                           psect	text480
  4462                           	file	"C:\Program Files (x86)\HI-TECH Software\PICC\9.82\sources\ftge.c"
  4463                           	line	5
  4464                           	global	__size_of___ftge
  4465  0070                     	__size_of___ftge	equ	__end_of___ftge-___ftge
  4466                           	
  4467  0F0F                     ___ftge:	
  4468                           	opt	stack 6
  4469                           ; Regs used in ___ftge: [wreg+status,2+status,0]
  4470                           	line	6
  4471                           	
  4472  0F0F                     l4995:	
  4473  0F0F  1FF6               	btfss	(___ftge@ff1+2),(23)&7
  4474  0F10  2F12               	goto	u2861
  4475  0F11  2F13               	goto	u2860
  4476  0F12                     u2861:
  4477  0F12  2F3B               	goto	l4999
  4478  0F13                     u2860:
  4479                           	line	7
  4480                           	
  4481  0F13                     l4997:	
  4482  0F13  3000               	movlw	0
  4483  0F14  1283               	bcf	status, 5	;RP0=0, select bank0
  4484  0F15  1303               	bcf	status, 6	;RP1=0, select bank0
  4485  0F16  00A0               	movwf	((??___ftge+0)+0)
  4486  0F17  3000               	movlw	0
  4487  0F18  00A1               	movwf	((??___ftge+0)+0+1)
  4488  0F19  3080               	movlw	080h
  4489  0F1A  00A2               	movwf	((??___ftge+0)+0+2)
  4490  0F1B  0974               	comf	(___ftge@ff1),w
  4491  0F1C  00A3               	movwf	(??___ftge+3)+0
  4492  0F1D  0975               	comf	(___ftge@ff1+1),w
  4493  0F1E  00A4               	movwf	((??___ftge+3)+0+1)
  4494  0F1F  0976               	comf	(___ftge@ff1+2),w
  4495  0F20  00A5               	movwf	((??___ftge+3)+0+2)
  4496  0F21  0AA3               	incf	(??___ftge+3)+0,f
  4497  0F22  1903               	skipnz
  4498  0F23  0AA4               	incf	((??___ftge+3)+0+1),f
  4499  0F24  1903               	skipnz
  4500  0F25  0AA5               	incf	((??___ftge+3)+0+2),f
  4501  0F26  0823               	movf	0+(??___ftge+3)+0,w
  4502  0F27  07A0               	addwf	(??___ftge+0)+0,f
  4503  0F28  0824               	movf	1+(??___ftge+3)+0,w
  4504  0F29  1803               	skipnc
  4505  0F2A  0F24               	incfsz	1+(??___ftge+3)+0,w
  4506  0F2B  2F2D               	goto	u2871
  4507  0F2C  2F2E               	goto	u2872
  4508  0F2D                     u2871:
  4509  0F2D  07A1               	addwf	(??___ftge+0)+1,f
  4510                           	
  4511  0F2E                     u2872:
  4512  0F2E  0825               	movf	2+(??___ftge+3)+0,w
  4513  0F2F  1803               	skipnc
  4514  0F30  0F25               	incfsz	2+(??___ftge+3)+0,w
  4515  0F31  2F33               	goto	u2873
  4516  0F32  2F34               	goto	u2874
  4517  0F33                     u2873:
  4518  0F33  07A2               	addwf	(??___ftge+0)+2,f
  4519                           	
  4520  0F34                     u2874:
  4521  0F34  0820               	movf	0+(??___ftge+0)+0,w
  4522  0F35  00F4               	movwf	(___ftge@ff1)
  4523  0F36  0821               	movf	1+(??___ftge+0)+0,w
  4524  0F37  00F5               	movwf	(___ftge@ff1+1)
  4525  0F38  0822               	movf	2+(??___ftge+0)+0,w
  4526  0F39  00F6               	movwf	(___ftge@ff1+2)
  4527  0F3A  2F3B               	goto	l4999
  4528                           	
  4529  0F3B                     l3018:	
  4530                           	line	8
  4531                           	
  4532  0F3B                     l4999:	
  4533  0F3B  1FF9               	btfss	(___ftge@ff2+2),(23)&7
  4534  0F3C  2F3E               	goto	u2881
  4535  0F3D  2F3F               	goto	u2880
  4536  0F3E                     u2881:
  4537  0F3E  2F67               	goto	l5003
  4538  0F3F                     u2880:
  4539                           	line	9
  4540                           	
  4541  0F3F                     l5001:	
  4542  0F3F  3000               	movlw	0
  4543  0F40  1283               	bcf	status, 5	;RP0=0, select bank0
  4544  0F41  1303               	bcf	status, 6	;RP1=0, select bank0
  4545  0F42  00A0               	movwf	((??___ftge+0)+0)
  4546  0F43  3000               	movlw	0
  4547  0F44  00A1               	movwf	((??___ftge+0)+0+1)
  4548  0F45  3080               	movlw	080h
  4549  0F46  00A2               	movwf	((??___ftge+0)+0+2)
  4550  0F47  0977               	comf	(___ftge@ff2),w
  4551  0F48  00A3               	movwf	(??___ftge+3)+0
  4552  0F49  0978               	comf	(___ftge@ff2+1),w
  4553  0F4A  00A4               	movwf	((??___ftge+3)+0+1)
  4554  0F4B  0979               	comf	(___ftge@ff2+2),w
  4555  0F4C  00A5               	movwf	((??___ftge+3)+0+2)
  4556  0F4D  0AA3               	incf	(??___ftge+3)+0,f
  4557  0F4E  1903               	skipnz
  4558  0F4F  0AA4               	incf	((??___ftge+3)+0+1),f
  4559  0F50  1903               	skipnz
  4560  0F51  0AA5               	incf	((??___ftge+3)+0+2),f
  4561  0F52  0823               	movf	0+(??___ftge+3)+0,w
  4562  0F53  07A0               	addwf	(??___ftge+0)+0,f
  4563  0F54  0824               	movf	1+(??___ftge+3)+0,w
  4564  0F55  1803               	skipnc
  4565  0F56  0F24               	incfsz	1+(??___ftge+3)+0,w
  4566  0F57  2F59               	goto	u2891
  4567  0F58  2F5A               	goto	u2892
  4568  0F59                     u2891:
  4569  0F59  07A1               	addwf	(??___ftge+0)+1,f
  4570                           	
  4571  0F5A                     u2892:
  4572  0F5A  0825               	movf	2+(??___ftge+3)+0,w
  4573  0F5B  1803               	skipnc
  4574  0F5C  0F25               	incfsz	2+(??___ftge+3)+0,w
  4575  0F5D  2F5F               	goto	u2893
  4576  0F5E  2F60               	goto	u2894
  4577  0F5F                     u2893:
  4578  0F5F  07A2               	addwf	(??___ftge+0)+2,f
  4579                           	
  4580  0F60                     u2894:
  4581  0F60  0820               	movf	0+(??___ftge+0)+0,w
  4582  0F61  00F7               	movwf	(___ftge@ff2)
  4583  0F62  0821               	movf	1+(??___ftge+0)+0,w
  4584  0F63  00F8               	movwf	(___ftge@ff2+1)
  4585  0F64  0822               	movf	2+(??___ftge+0)+0,w
  4586  0F65  00F9               	movwf	(___ftge@ff2+2)
  4587  0F66  2F67               	goto	l5003
  4588                           	
  4589  0F67                     l3019:	
  4590                           	line	10
  4591                           	
  4592  0F67                     l5003:	
  4593  0F67  3080               	movlw	080h
  4594  0F68  06F6               	xorwf	(___ftge@ff1+2),f
  4595                           	line	11
  4596                           	
  4597  0F69                     l5005:	
  4598  0F69  3080               	movlw	080h
  4599  0F6A  06F9               	xorwf	(___ftge@ff2+2),f
  4600                           	line	12
  4601                           	
  4602  0F6B                     l5007:	
  4603  0F6B  0879               	movf	(___ftge@ff2+2),w
  4604  0F6C  0276               	subwf	(___ftge@ff1+2),w
  4605  0F6D  1D03               	skipz
  4606  0F6E  2F75               	goto	u2905
  4607  0F6F  0878               	movf	(___ftge@ff2+1),w
  4608  0F70  0275               	subwf	(___ftge@ff1+1),w
  4609  0F71  1D03               	skipz
  4610  0F72  2F75               	goto	u2905
  4611  0F73  0877               	movf	(___ftge@ff2),w
  4612  0F74  0274               	subwf	(___ftge@ff1),w
  4613  0F75                     u2905:
  4614  0F75  1803               	skipnc
  4615  0F76  2F78               	goto	u2901
  4616  0F77  2F79               	goto	u2900
  4617  0F78                     u2901:
  4618  0F78  2F7B               	goto	l5011
  4619  0F79                     u2900:
  4620                           	
  4621  0F79                     l5009:	
  4622  0F79  1003               	clrc
  4623                           	
  4624  0F7A  2F7E               	goto	l3020
  4625                           	
  4626  0F7B                     l4849:	
  4627                           	
  4628  0F7B                     l5011:	
  4629  0F7B  1403               	setc
  4630                           	
  4631  0F7C  2F7E               	goto	l3020
  4632                           	
  4633  0F7D                     l4851:	
  4634  0F7D  2F7E               	goto	l3020
  4635                           	
  4636  0F7E                     l5013:	
  4637                           	line	13
  4638                           	
  4639  0F7E                     l3020:	
  4640  0F7E  0008               	return
  4641                           	opt stack 0
  4642                           GLOBAL	__end_of___ftge
  4643  0F7F                     	__end_of___ftge:
  4644 ;; =============== function ___ftge ends ============
  4645                           
  4646                           	signat	___ftge,8312
  4647                           	global	___ftneg
  4648                           psect	text481,local,class=CODE,delta=2
  4649                           global __ptext481
  4650  0D95                     __ptext481:
  4651                           
  4652 ;; *************** function ___ftneg *****************
  4653 ;; Defined at:
  4654 ;;		line 16 in file "C:\Program Files (x86)\HI-TECH Software\PICC\9.82\sources\ftneg.c"
  4655 ;; Parameters:    Size  Location     Type
  4656 ;;  f1              3   22[BANK0 ] float 
  4657 ;; Auto vars:     Size  Location     Type
  4658 ;;		None
  4659 ;; Return value:  Size  Location     Type
  4660 ;;                  3   22[BANK0 ] float 
  4661 ;; Registers used:
  4662 ;;		wreg
  4663 ;; Tracked objects:
  4664 ;;		On entry : 0/0
  4665 ;;		On exit  : 0/0
  4666 ;;		Unchanged: 0/0
  4667 ;; Data sizes:     COMMON   BANK0   BANK1   BANK3   BANK2
  4668 ;;      Params:         0       3       0       0       0
  4669 ;;      Locals:         0       0       0       0       0
  4670 ;;      Temps:          0       0       0       0       0
  4671 ;;      Totals:         0       3       0       0       0
  4672 ;;Total ram usage:        3 bytes
  4673 ;; Hardware stack levels used:    1
  4674 ;; Hardware stack levels required when called:    1
  4675 ;; This function calls:
  4676 ;;		Nothing
  4677 ;; This function is called by:
  4678 ;;		_main
  4679 ;; This function uses a non-reentrant model
  4680 ;;
  4681                           psect	text481
  4682                           	file	"C:\Program Files (x86)\HI-TECH Software\PICC\9.82\sources\ftneg.c"
  4683                           	line	16
  4684                           	global	__size_of___ftneg
  4685  000E                     	__size_of___ftneg	equ	__end_of___ftneg-___ftneg
  4686                           	
  4687  0D95                     ___ftneg:	
  4688                           	opt	stack 6
  4689                           ; Regs used in ___ftneg: [wreg]
  4690                           	line	17
  4691                           	
  4692  0D95                     l4987:	
  4693  0D95  1283               	bcf	status, 5	;RP0=0, select bank0
  4694  0D96  1303               	bcf	status, 6	;RP1=0, select bank0
  4695  0D97  0838               	movf	(___ftneg@f1+2),w
  4696  0D98  0437               	iorwf	(___ftneg@f1+1),w
  4697  0D99  0436               	iorwf	(___ftneg@f1),w
  4698  0D9A  1903               	skipnz
  4699  0D9B  2D9D               	goto	u2851
  4700  0D9C  2D9E               	goto	u2850
  4701  0D9D                     u2851:
  4702  0D9D  2DA1               	goto	l4991
  4703  0D9E                     u2850:
  4704                           	line	18
  4705                           	
  4706  0D9E                     l4989:	
  4707  0D9E  3080               	movlw	080h
  4708  0D9F  06B8               	xorwf	(___ftneg@f1+2),f
  4709  0DA0  2DA1               	goto	l4991
  4710                           	
  4711  0DA1                     l3014:	
  4712                           	line	19
  4713                           	
  4714  0DA1                     l4991:	
  4715  0DA1  2DA2               	goto	l3015
  4716                           	
  4717  0DA2                     l4993:	
  4718                           	line	20
  4719                           	
  4720  0DA2                     l3015:	
  4721  0DA2  0008               	return
  4722                           	opt stack 0
  4723                           GLOBAL	__end_of___ftneg
  4724  0DA3                     	__end_of___ftneg:
  4725 ;; =============== function ___ftneg ends ============
  4726                           
  4727                           	signat	___ftneg,4219
  4728                           	global	___fttol
  4729                           psect	text482,local,class=CODE,delta=2
  4730                           global __ptext482
  4731  05DB                     __ptext482:
  4732                           
  4733 ;; *************** function ___fttol *****************
  4734 ;; Defined at:
  4735 ;;		line 45 in file "C:\Program Files (x86)\HI-TECH Software\PICC\9.82\sources\fttol.c"
  4736 ;; Parameters:    Size  Location     Type
  4737 ;;  f1              3    8[BANK0 ] float 
  4738 ;; Auto vars:     Size  Location     Type
  4739 ;;  lval            4   17[BANK0 ] unsigned long 
  4740 ;;  exp1            1   21[BANK0 ] unsigned char 
  4741 ;;  sign1           1   16[BANK0 ] unsigned char 
  4742 ;; Return value:  Size  Location     Type
  4743 ;;                  4    8[BANK0 ] long 
  4744 ;; Registers used:
  4745 ;;		wreg, status,2, status,0
  4746 ;; Tracked objects:
  4747 ;;		On entry : 0/0
  4748 ;;		On exit  : 0/0
  4749 ;;		Unchanged: 0/0
  4750 ;; Data sizes:     COMMON   BANK0   BANK1   BANK3   BANK2
  4751 ;;      Params:         0       4       0       0       0
  4752 ;;      Locals:         0       6       0       0       0
  4753 ;;      Temps:          0       4       0       0       0
  4754 ;;      Totals:         0      14       0       0       0
  4755 ;;Total ram usage:       14 bytes
  4756 ;; Hardware stack levels used:    1
  4757 ;; Hardware stack levels required when called:    1
  4758 ;; This function calls:
  4759 ;;		Nothing
  4760 ;; This function is called by:
  4761 ;;		_main
  4762 ;;		_Rs232Conf
  4763 ;; This function uses a non-reentrant model
  4764 ;;
  4765                           psect	text482
  4766                           	file	"C:\Program Files (x86)\HI-TECH Software\PICC\9.82\sources\fttol.c"
  4767                           	line	45
  4768                           	global	__size_of___fttol
  4769  00A6                     	__size_of___fttol	equ	__end_of___fttol-___fttol
  4770                           	
  4771  05DB                     ___fttol:	
  4772                           	opt	stack 6
  4773                           ; Regs used in ___fttol: [wreg+status,2+status,0]
  4774                           	line	49
  4775                           	
  4776  05DB                     l4935:	
  4777  05DB  1283               	bcf	status, 5	;RP0=0, select bank0
  4778  05DC  1303               	bcf	status, 6	;RP1=0, select bank0
  4779  05DD  0828               	movf	(___fttol@f1),w
  4780  05DE  00AC               	movwf	((??___fttol+0)+0)
  4781  05DF  0829               	movf	(___fttol@f1+1),w
  4782  05E0  00AD               	movwf	((??___fttol+0)+0+1)
  4783  05E1  082A               	movf	(___fttol@f1+2),w
  4784  05E2  00AE               	movwf	((??___fttol+0)+0+2)
  4785  05E3  1003               	clrc
  4786  05E4  0D2D               	rlf	(??___fttol+0)+1,w
  4787  05E5  0D2E               	rlf	(??___fttol+0)+2,w
  4788  05E6  00AF               	movwf	(??___fttol+3)+0
  4789  05E7  082F               	movf	(??___fttol+3)+0,w
  4790  05E8  00B5               	movwf	(___fttol@exp1)
  4791  05E9  08B5               	movf	((___fttol@exp1)),f
  4792  05EA  1D03               	skipz
  4793  05EB  2DED               	goto	u2741
  4794  05EC  2DEE               	goto	u2740
  4795  05ED                     u2741:
  4796  05ED  2DF8               	goto	l4941
  4797  05EE                     u2740:
  4798                           	line	50
  4799                           	
  4800  05EE                     l4937:	
  4801  05EE  3000               	movlw	0
  4802  05EF  00AB               	movwf	(?___fttol+3)
  4803  05F0  3000               	movlw	0
  4804  05F1  00AA               	movwf	(?___fttol+2)
  4805  05F2  3000               	movlw	0
  4806  05F3  00A9               	movwf	(?___fttol+1)
  4807  05F4  3000               	movlw	0
  4808  05F5  00A8               	movwf	(?___fttol)
  4809                           
  4810  05F6  2E80               	goto	l2961
  4811                           	
  4812  05F7                     l4939:	
  4813  05F7  2E80               	goto	l2961
  4814                           	
  4815  05F8                     l2960:	
  4816                           	line	51
  4817                           	
  4818  05F8                     l4941:	
  4819  05F8  0828               	movf	(___fttol@f1),w
  4820  05F9  00AC               	movwf	((??___fttol+0)+0)
  4821  05FA  0829               	movf	(___fttol@f1+1),w
  4822  05FB  00AD               	movwf	((??___fttol+0)+0+1)
  4823  05FC  082A               	movf	(___fttol@f1+2),w
  4824  05FD  00AE               	movwf	((??___fttol+0)+0+2)
  4825  05FE  3017               	movlw	017h
  4826  05FF                     u2755:
  4827  05FF  1003               	clrc
  4828  0600  0CAE               	rrf	(??___fttol+0)+2,f
  4829  0601  0CAD               	rrf	(??___fttol+0)+1,f
  4830  0602  0CAC               	rrf	(??___fttol+0)+0,f
  4831  0603                     u2750:
  4832  0603  3EFF               	addlw	-1
  4833  0604  1D03               	skipz
  4834  0605  2DFF               	goto	u2755
  4835  0606  082C               	movf	0+(??___fttol+0)+0,w
  4836  0607  00AF               	movwf	(??___fttol+3)+0
  4837  0608  082F               	movf	(??___fttol+3)+0,w
  4838  0609  00B0               	movwf	(___fttol@sign1)
  4839                           	line	52
  4840                           	
  4841  060A                     l4943:	
  4842  060A  17A9               	bsf	(___fttol@f1)+(15/8),(15)&7
  4843                           	line	53
  4844                           	
  4845  060B                     l4945:	
  4846  060B  30FF               	movlw	0FFh
  4847  060C  05A8               	andwf	(___fttol@f1),f
  4848  060D  30FF               	movlw	0FFh
  4849  060E  05A9               	andwf	(___fttol@f1+1),f
  4850  060F  3000               	movlw	0
  4851  0610  05AA               	andwf	(___fttol@f1+2),f
  4852                           	line	54
  4853                           	
  4854  0611                     l4947:	
  4855  0611  0828               	movf	(___fttol@f1),w
  4856  0612  00B1               	movwf	(___fttol@lval)
  4857  0613  0829               	movf	(___fttol@f1+1),w
  4858  0614  00B2               	movwf	((___fttol@lval))+1
  4859  0615  082A               	movf	(___fttol@f1+2),w
  4860  0616  00B3               	movwf	((___fttol@lval))+2
  4861  0617  01B4               	clrf	((___fttol@lval))+3
  4862                           	line	55
  4863                           	
  4864  0618                     l4949:	
  4865  0618  308E               	movlw	low(08Eh)
  4866  0619  02B5               	subwf	(___fttol@exp1),f
  4867                           	line	56
  4868                           	
  4869  061A                     l4951:	
  4870  061A  1FB5               	btfss	(___fttol@exp1),7
  4871  061B  2E1D               	goto	u2761
  4872  061C  2E1E               	goto	u2760
  4873  061D                     u2761:
  4874  061D  2E43               	goto	l4961
  4875  061E                     u2760:
  4876                           	line	57
  4877                           	
  4878  061E                     l4953:	
  4879  061E  0835               	movf	(___fttol@exp1),w
  4880  061F  3A80               	xorlw	80h
  4881  0620  3E8F               	addlw	-((-15)^80h)
  4882  0621  1803               	skipnc
  4883  0622  2E24               	goto	u2771
  4884  0623  2E25               	goto	u2770
  4885  0624                     u2771:
  4886  0624  2E30               	goto	l4959
  4887  0625                     u2770:
  4888                           	line	58
  4889                           	
  4890  0625                     l4955:	
  4891  0625  3000               	movlw	0
  4892  0626  00AB               	movwf	(?___fttol+3)
  4893  0627  3000               	movlw	0
  4894  0628  00AA               	movwf	(?___fttol+2)
  4895  0629  3000               	movlw	0
  4896  062A  00A9               	movwf	(?___fttol+1)
  4897  062B  3000               	movlw	0
  4898  062C  00A8               	movwf	(?___fttol)
  4899                           
  4900  062D  2E80               	goto	l2961
  4901                           	
  4902  062E                     l4957:	
  4903  062E  2E80               	goto	l2961
  4904                           	
  4905  062F                     l2963:	
  4906  062F  2E30               	goto	l4959
  4907                           	line	59
  4908                           	
  4909  0630                     l2964:	
  4910                           	line	60
  4911                           	
  4912  0630                     l4959:	
  4913  0630  3001               	movlw	01h
  4914  0631                     u2785:
  4915  0631  1003               	clrc
  4916  0632  0CB4               	rrf	(___fttol@lval+3),f
  4917  0633  0CB3               	rrf	(___fttol@lval+2),f
  4918  0634  0CB2               	rrf	(___fttol@lval+1),f
  4919  0635  0CB1               	rrf	(___fttol@lval),f
  4920  0636  3EFF               	addlw	-1
  4921  0637  1D03               	skipz
  4922  0638  2E31               	goto	u2785
  4923                           
  4924                           	line	61
  4925  0639  3001               	movlw	(01h)
  4926  063A  00AC               	movwf	(??___fttol+0)+0
  4927  063B  082C               	movf	(??___fttol+0)+0,w
  4928  063C  07B5               	addwf	(___fttol@exp1),f
  4929  063D  1D03               	btfss	status,2
  4930  063E  2E40               	goto	u2791
  4931  063F  2E41               	goto	u2790
  4932  0640                     u2791:
  4933  0640  2E30               	goto	l4959
  4934  0641                     u2790:
  4935  0641  2E67               	goto	l4971
  4936                           	
  4937  0642                     l2965:	
  4938                           	line	62
  4939  0642  2E67               	goto	l4971
  4940                           	
  4941  0643                     l2962:	
  4942                           	line	63
  4943                           	
  4944  0643                     l4961:	
  4945  0643  3018               	movlw	(018h)
  4946  0644  0235               	subwf	(___fttol@exp1),w
  4947  0645  1C03               	skipc
  4948  0646  2E48               	goto	u2801
  4949  0647  2E49               	goto	u2800
  4950  0648                     u2801:
  4951  0648  2E60               	goto	l4969
  4952  0649                     u2800:
  4953                           	line	64
  4954                           	
  4955  0649                     l4963:	
  4956  0649  3000               	movlw	0
  4957  064A  00AB               	movwf	(?___fttol+3)
  4958  064B  3000               	movlw	0
  4959  064C  00AA               	movwf	(?___fttol+2)
  4960  064D  3000               	movlw	0
  4961  064E  00A9               	movwf	(?___fttol+1)
  4962  064F  3000               	movlw	0
  4963  0650  00A8               	movwf	(?___fttol)
  4964                           
  4965  0651  2E80               	goto	l2961
  4966                           	
  4967  0652                     l4965:	
  4968  0652  2E80               	goto	l2961
  4969                           	
  4970  0653                     l2967:	
  4971                           	line	65
  4972  0653  2E60               	goto	l4969
  4973                           	
  4974  0654                     l2969:	
  4975                           	line	66
  4976                           	
  4977  0654                     l4967:	
  4978  0654  3001               	movlw	01h
  4979  0655  00AC               	movwf	(??___fttol+0)+0
  4980  0656                     u2815:
  4981  0656  1003               	clrc
  4982  0657  0DB1               	rlf	(___fttol@lval),f
  4983  0658  0DB2               	rlf	(___fttol@lval+1),f
  4984  0659  0DB3               	rlf	(___fttol@lval+2),f
  4985  065A  0DB4               	rlf	(___fttol@lval+3),f
  4986  065B  0BAC               	decfsz	(??___fttol+0)+0
  4987  065C  2E56               	goto	u2815
  4988                           	line	67
  4989  065D  3001               	movlw	low(01h)
  4990  065E  02B5               	subwf	(___fttol@exp1),f
  4991  065F  2E60               	goto	l4969
  4992                           	line	68
  4993                           	
  4994  0660                     l2968:	
  4995                           	line	65
  4996                           	
  4997  0660                     l4969:	
  4998  0660  08B5               	movf	(___fttol@exp1),f
  4999  0661  1D03               	skipz
  5000  0662  2E64               	goto	u2821
  5001  0663  2E65               	goto	u2820
  5002  0664                     u2821:
  5003  0664  2E54               	goto	l4967
  5004  0665                     u2820:
  5005  0665  2E67               	goto	l4971
  5006                           	
  5007  0666                     l2970:	
  5008  0666  2E67               	goto	l4971
  5009                           	line	69
  5010                           	
  5011  0667                     l2966:	
  5012                           	line	70
  5013                           	
  5014  0667                     l4971:	
  5015  0667  0830               	movf	(___fttol@sign1),w
  5016  0668  1D03               	skipz
  5017  0669  2E6B               	goto	u2830
  5018  066A  2E77               	goto	l4975
  5019  066B                     u2830:
  5020                           	line	71
  5021                           	
  5022  066B                     l4973:	
  5023  066B  09B1               	comf	(___fttol@lval),f
  5024  066C  09B2               	comf	(___fttol@lval+1),f
  5025  066D  09B3               	comf	(___fttol@lval+2),f
  5026  066E  09B4               	comf	(___fttol@lval+3),f
  5027  066F  0AB1               	incf	(___fttol@lval),f
  5028  0670  1903               	skipnz
  5029  0671  0AB2               	incf	(___fttol@lval+1),f
  5030  0672  1903               	skipnz
  5031  0673  0AB3               	incf	(___fttol@lval+2),f
  5032  0674  1903               	skipnz
  5033  0675  0AB4               	incf	(___fttol@lval+3),f
  5034  0676  2E77               	goto	l4975
  5035                           	
  5036  0677                     l2971:	
  5037                           	line	72
  5038                           	
  5039  0677                     l4975:	
  5040  0677  0834               	movf	(___fttol@lval+3),w
  5041  0678  00AB               	movwf	(?___fttol+3)
  5042  0679  0833               	movf	(___fttol@lval+2),w
  5043  067A  00AA               	movwf	(?___fttol+2)
  5044  067B  0832               	movf	(___fttol@lval+1),w
  5045  067C  00A9               	movwf	(?___fttol+1)
  5046  067D  0831               	movf	(___fttol@lval),w
  5047  067E  00A8               	movwf	(?___fttol)
  5048                           
  5049  067F  2E80               	goto	l2961
  5050                           	
  5051  0680                     l4977:	
  5052                           	line	73
  5053                           	
  5054  0680                     l2961:	
  5055  0680  0008               	return
  5056                           	opt stack 0
  5057                           GLOBAL	__end_of___fttol
  5058  0681                     	__end_of___fttol:
  5059 ;; =============== function ___fttol ends ============
  5060                           
  5061                           	signat	___fttol,4220
  5062                           	global	___lmul
  5063                           psect	text483,local,class=CODE,delta=2
  5064                           global __ptext483
  5065  0E76                     __ptext483:
  5066                           
  5067 ;; *************** function ___lmul *****************
  5068 ;; Defined at:
  5069 ;;		line 3 in file "C:\Program Files (x86)\HI-TECH Software\PICC\9.82\sources\lmul.c"
  5070 ;; Parameters:    Size  Location     Type
  5071 ;;  multiplier      4    0[BANK0 ] unsigned long 
  5072 ;;  multiplicand    4    4[BANK0 ] unsigned long 
  5073 ;; Auto vars:     Size  Location     Type
  5074 ;;  product         4    5[COMMON] unsigned long 
  5075 ;; Return value:  Size  Location     Type
  5076 ;;                  4    0[BANK0 ] unsigned long 
  5077 ;; Registers used:
  5078 ;;		wreg, status,2, status,0
  5079 ;; Tracked objects:
  5080 ;;		On entry : 0/0
  5081 ;;		On exit  : 0/0
  5082 ;;		Unchanged: 0/0
  5083 ;; Data sizes:     COMMON   BANK0   BANK1   BANK3   BANK2
  5084 ;;      Params:         0       8       0       0       0
  5085 ;;      Locals:         4       0       0       0       0
  5086 ;;      Temps:          1       0       0       0       0
  5087 ;;      Totals:         5       8       0       0       0
  5088 ;;Total ram usage:       13 bytes
  5089 ;; Hardware stack levels used:    1
  5090 ;; Hardware stack levels required when called:    1
  5091 ;; This function calls:
  5092 ;;		Nothing
  5093 ;; This function is called by:
  5094 ;;		_Rs232Conf
  5095 ;; This function uses a non-reentrant model
  5096 ;;
  5097                           psect	text483
  5098                           	file	"C:\Program Files (x86)\HI-TECH Software\PICC\9.82\sources\lmul.c"
  5099                           	line	3
  5100                           	global	__size_of___lmul
  5101  004C                     	__size_of___lmul	equ	__end_of___lmul-___lmul
  5102                           	
  5103  0E76                     ___lmul:	
  5104                           	opt	stack 5
  5105                           ; Regs used in ___lmul: [wreg+status,2+status,0]
  5106                           	line	4
  5107                           	
  5108  0E76                     l4915:	
  5109  0E76  3000               	movlw	0
  5110  0E77  00F8               	movwf	(___lmul@product+3)
  5111  0E78  3000               	movlw	0
  5112  0E79  00F7               	movwf	(___lmul@product+2)
  5113  0E7A  3000               	movlw	0
  5114  0E7B  00F6               	movwf	(___lmul@product+1)
  5115  0E7C  3000               	movlw	0
  5116  0E7D  00F5               	movwf	(___lmul@product)
  5117                           
  5118  0E7E  2E7F               	goto	l4917
  5119                           	line	6
  5120                           	
  5121  0E7F                     l2926:	
  5122                           	line	7
  5123                           	
  5124  0E7F                     l4917:	
  5125  0E7F  1283               	bcf	status, 5	;RP0=0, select bank0
  5126  0E80  1303               	bcf	status, 6	;RP1=0, select bank0
  5127  0E81  1C20               	btfss	(___lmul@multiplier),(0)&7
  5128  0E82  2E84               	goto	u2691
  5129  0E83  2E85               	goto	u2690
  5130  0E84                     u2691:
  5131  0E84  2E9D               	goto	l4921
  5132  0E85                     u2690:
  5133                           	line	8
  5134                           	
  5135  0E85                     l4919:	
  5136  0E85  0824               	movf	(___lmul@multiplicand),w
  5137  0E86  07F5               	addwf	(___lmul@product),f
  5138  0E87  0825               	movf	(___lmul@multiplicand+1),w
  5139  0E88  1103               	clrz
  5140  0E89  1803               	skipnc
  5141  0E8A  3E01               	addlw	1
  5142  0E8B  1903               	skipnz
  5143  0E8C  2E8E               	goto	u2701
  5144  0E8D  07F6               	addwf	(___lmul@product+1),f
  5145  0E8E                     u2701:
  5146  0E8E  0826               	movf	(___lmul@multiplicand+2),w
  5147  0E8F  1103               	clrz
  5148  0E90  1803               	skipnc
  5149  0E91  3E01               	addlw	1
  5150  0E92  1903               	skipnz
  5151  0E93  2E95               	goto	u2702
  5152  0E94  07F7               	addwf	(___lmul@product+2),f
  5153  0E95                     u2702:
  5154  0E95  0827               	movf	(___lmul@multiplicand+3),w
  5155  0E96  1103               	clrz
  5156  0E97  1803               	skipnc
  5157  0E98  3E01               	addlw	1
  5158  0E99  1903               	skipnz
  5159  0E9A  2E9C               	goto	u2703
  5160  0E9B  07F8               	addwf	(___lmul@product+3),f
  5161  0E9C                     u2703:
  5162                           
  5163  0E9C  2E9D               	goto	l4921
  5164                           	
  5165  0E9D                     l2927:	
  5166                           	line	9
  5167                           	
  5168  0E9D                     l4921:	
  5169  0E9D  3001               	movlw	01h
  5170  0E9E  00F4               	movwf	(??___lmul+0)+0
  5171  0E9F                     u2715:
  5172  0E9F  1003               	clrc
  5173  0EA0  0DA4               	rlf	(___lmul@multiplicand),f
  5174  0EA1  0DA5               	rlf	(___lmul@multiplicand+1),f
  5175  0EA2  0DA6               	rlf	(___lmul@multiplicand+2),f
  5176  0EA3  0DA7               	rlf	(___lmul@multiplicand+3),f
  5177  0EA4  0BF4               	decfsz	(??___lmul+0)+0
  5178  0EA5  2E9F               	goto	u2715
  5179                           	line	10
  5180                           	
  5181  0EA6                     l4923:	
  5182  0EA6  3001               	movlw	01h
  5183  0EA7                     u2725:
  5184  0EA7  1003               	clrc
  5185  0EA8  0CA3               	rrf	(___lmul@multiplier+3),f
  5186  0EA9  0CA2               	rrf	(___lmul@multiplier+2),f
  5187  0EAA  0CA1               	rrf	(___lmul@multiplier+1),f
  5188  0EAB  0CA0               	rrf	(___lmul@multiplier),f
  5189  0EAC  3EFF               	addlw	-1
  5190  0EAD  1D03               	skipz
  5191  0EAE  2EA7               	goto	u2725
  5192                           
  5193                           	line	11
  5194  0EAF  0823               	movf	(___lmul@multiplier+3),w
  5195  0EB0  0422               	iorwf	(___lmul@multiplier+2),w
  5196  0EB1  0421               	iorwf	(___lmul@multiplier+1),w
  5197  0EB2  0420               	iorwf	(___lmul@multiplier),w
  5198  0EB3  1D03               	skipz
  5199  0EB4  2EB6               	goto	u2731
  5200  0EB5  2EB7               	goto	u2730
  5201  0EB6                     u2731:
  5202  0EB6  2E7F               	goto	l4917
  5203  0EB7                     u2730:
  5204  0EB7  2EB8               	goto	l4925
  5205                           	
  5206  0EB8                     l2928:	
  5207                           	line	12
  5208                           	
  5209  0EB8                     l4925:	
  5210  0EB8  0878               	movf	(___lmul@product+3),w
  5211  0EB9  00A3               	movwf	(?___lmul+3)
  5212  0EBA  0877               	movf	(___lmul@product+2),w
  5213  0EBB  00A2               	movwf	(?___lmul+2)
  5214  0EBC  0876               	movf	(___lmul@product+1),w
  5215  0EBD  00A1               	movwf	(?___lmul+1)
  5216  0EBE  0875               	movf	(___lmul@product),w
  5217  0EBF  00A0               	movwf	(?___lmul)
  5218                           
  5219  0EC0  2EC1               	goto	l2929
  5220                           	
  5221  0EC1                     l4927:	
  5222                           	line	13
  5223                           	
  5224  0EC1                     l2929:	
  5225  0EC1  0008               	return
  5226                           	opt stack 0
  5227                           GLOBAL	__end_of___lmul
  5228  0EC2                     	__end_of___lmul:
  5229 ;; =============== function ___lmul ends ============
  5230                           
  5231                           	signat	___lmul,8316
  5232                           	global	___ftpack
  5233                           psect	text484,local,class=CODE,delta=2
  5234                           global __ptext484
  5235  0F7F                     __ptext484:
  5236                           
  5237 ;; *************** function ___ftpack *****************
  5238 ;; Defined at:
  5239 ;;		line 63 in file "C:\Program Files (x86)\HI-TECH Software\PICC\9.82\sources\float.c"
  5240 ;; Parameters:    Size  Location     Type
  5241 ;;  arg             3    4[COMMON] unsigned um
  5242 ;;  exp             1    7[COMMON] unsigned char 
  5243 ;;  sign            1    8[COMMON] unsigned char 
  5244 ;; Auto vars:     Size  Location     Type
  5245 ;;		None
  5246 ;; Return value:  Size  Location     Type
  5247 ;;                  3    4[COMMON] float 
  5248 ;; Registers used:
  5249 ;;		wreg, status,2, status,0
  5250 ;; Tracked objects:
  5251 ;;		On entry : 0/0
  5252 ;;		On exit  : 0/0
  5253 ;;		Unchanged: 0/0
  5254 ;; Data sizes:     COMMON   BANK0   BANK1   BANK3   BANK2
  5255 ;;      Params:         5       0       0       0       0
  5256 ;;      Locals:         0       0       0       0       0
  5257 ;;      Temps:          0       3       0       0       0
  5258 ;;      Totals:         5       3       0       0       0
  5259 ;;Total ram usage:        8 bytes
  5260 ;; Hardware stack levels used:    1
  5261 ;; Hardware stack levels required when called:    1
  5262 ;; This function calls:
  5263 ;;		Nothing
  5264 ;; This function is called by:
  5265 ;;		___ftadd
  5266 ;;		___ftdiv
  5267 ;;		___ftmul
  5268 ;;		___lbtoft
  5269 ;;		___awtoft
  5270 ;;		___lwtoft
  5271 ;;		___altoft
  5272 ;;		___abtoft
  5273 ;;		___lltoft
  5274 ;;		___attoft
  5275 ;;		___lttoft
  5276 ;; This function uses a non-reentrant model
  5277 ;;
  5278                           psect	text484
  5279                           	file	"C:\Program Files (x86)\HI-TECH Software\PICC\9.82\sources\float.c"
  5280                           	line	63
  5281                           	global	__size_of___ftpack
  5282  0081                     	__size_of___ftpack	equ	__end_of___ftpack-___ftpack
  5283                           	
  5284  0F7F                     ___ftpack:	
  5285                           	opt	stack 5
  5286                           ; Regs used in ___ftpack: [wreg+status,2+status,0]
  5287                           	line	64
  5288                           	
  5289  0F7F                     l4885:	
  5290  0F7F  0877               	movf	(___ftpack@exp),w
  5291  0F80  1D03               	skipz
  5292  0F81  2F83               	goto	u2580
  5293  0F82  2F8B               	goto	l4889
  5294  0F83                     u2580:
  5295                           	
  5296  0F83                     l4887:	
  5297  0F83  0876               	movf	(___ftpack@arg+2),w
  5298  0F84  0475               	iorwf	(___ftpack@arg+1),w
  5299  0F85  0474               	iorwf	(___ftpack@arg),w
  5300  0F86  1D03               	skipz
  5301  0F87  2F89               	goto	u2591
  5302  0F88  2F8A               	goto	u2590
  5303  0F89                     u2591:
  5304  0F89  2FA3               	goto	l4895
  5305  0F8A                     u2590:
  5306  0F8A  2F8B               	goto	l4889
  5307                           	
  5308  0F8B                     l3185:	
  5309                           	line	65
  5310                           	
  5311  0F8B                     l4889:	
  5312  0F8B  3000               	movlw	0x0
  5313  0F8C  00F4               	movwf	(?___ftpack)
  5314  0F8D  3000               	movlw	0x0
  5315  0F8E  00F5               	movwf	(?___ftpack+1)
  5316  0F8F  3000               	movlw	0x0
  5317  0F90  00F6               	movwf	(?___ftpack+2)
  5318  0F91  2FFF               	goto	l3186
  5319                           	
  5320  0F92                     l4891:	
  5321  0F92  2FFF               	goto	l3186
  5322                           	
  5323  0F93                     l3183:	
  5324                           	line	66
  5325  0F93  2FA3               	goto	l4895
  5326                           	
  5327  0F94                     l3188:	
  5328                           	line	67
  5329                           	
  5330  0F94                     l4893:	
  5331  0F94  3001               	movlw	(01h)
  5332  0F95  1283               	bcf	status, 5	;RP0=0, select bank0
  5333  0F96  1303               	bcf	status, 6	;RP1=0, select bank0
  5334  0F97  00A0               	movwf	(??___ftpack+0)+0
  5335  0F98  0820               	movf	(??___ftpack+0)+0,w
  5336  0F99  07F7               	addwf	(___ftpack@exp),f
  5337                           	line	68
  5338  0F9A  3001               	movlw	01h
  5339  0F9B                     u2605:
  5340  0F9B  1003               	clrc
  5341  0F9C  0CF6               	rrf	(___ftpack@arg+2),f
  5342  0F9D  0CF5               	rrf	(___ftpack@arg+1),f
  5343  0F9E  0CF4               	rrf	(___ftpack@arg),f
  5344  0F9F  3EFF               	addlw	-1
  5345  0FA0  1D03               	skipz
  5346  0FA1  2F9B               	goto	u2605
  5347                           
  5348  0FA2  2FA3               	goto	l4895
  5349                           	line	69
  5350                           	
  5351  0FA3                     l3187:	
  5352                           	line	66
  5353                           	
  5354  0FA3                     l4895:	
  5355  0FA3  30FE               	movlw	low highword(0FE0000h)
  5356  0FA4  0576               	andwf	(___ftpack@arg+2),w
  5357  0FA5  1D03               	btfss	status,2
  5358  0FA6  2FA8               	goto	u2611
  5359  0FA7  2FA9               	goto	u2610
  5360  0FA8                     u2611:
  5361  0FA8  2F94               	goto	l4893
  5362  0FA9                     u2610:
  5363  0FA9  2FC3               	goto	l3190
  5364                           	
  5365  0FAA                     l3189:	
  5366                           	line	70
  5367  0FAA  2FC3               	goto	l3190
  5368                           	
  5369  0FAB                     l3191:	
  5370                           	line	71
  5371                           	
  5372  0FAB                     l4897:	
  5373  0FAB  3001               	movlw	(01h)
  5374  0FAC  1283               	bcf	status, 5	;RP0=0, select bank0
  5375  0FAD  1303               	bcf	status, 6	;RP1=0, select bank0
  5376  0FAE  00A0               	movwf	(??___ftpack+0)+0
  5377  0FAF  0820               	movf	(??___ftpack+0)+0,w
  5378  0FB0  07F7               	addwf	(___ftpack@exp),f
  5379                           	line	72
  5380                           	
  5381  0FB1                     l4899:	
  5382  0FB1  3001               	movlw	01h
  5383  0FB2  07F4               	addwf	(___ftpack@arg),f
  5384  0FB3  3000               	movlw	0
  5385  0FB4  1803               	skipnc
  5386  0FB5  3001               movlw 1
  5387  0FB6  07F5               	addwf	(___ftpack@arg+1),f
  5388  0FB7  3000               	movlw	0
  5389  0FB8  1803               	skipnc
  5390  0FB9  3001               movlw 1
  5391  0FBA  07F6               	addwf	(___ftpack@arg+2),f
  5392                           	line	73
  5393                           	
  5394  0FBB                     l4901:	
  5395  0FBB  3001               	movlw	01h
  5396  0FBC                     u2625:
  5397  0FBC  1003               	clrc
  5398  0FBD  0CF6               	rrf	(___ftpack@arg+2),f
  5399  0FBE  0CF5               	rrf	(___ftpack@arg+1),f
  5400  0FBF  0CF4               	rrf	(___ftpack@arg),f
  5401  0FC0  3EFF               	addlw	-1
  5402  0FC1  1D03               	skipz
  5403  0FC2  2FBC               	goto	u2625
  5404                           
  5405                           	line	74
  5406                           	
  5407  0FC3                     l3190:	
  5408                           	line	70
  5409  0FC3  30FF               	movlw	low highword(0FF0000h)
  5410  0FC4  0576               	andwf	(___ftpack@arg+2),w
  5411  0FC5  1D03               	btfss	status,2
  5412  0FC6  2FC8               	goto	u2631
  5413  0FC7  2FC9               	goto	u2630
  5414  0FC8                     u2631:
  5415  0FC8  2FAB               	goto	l4897
  5416  0FC9                     u2630:
  5417  0FC9  2FD6               	goto	l4905
  5418                           	
  5419  0FCA                     l3192:	
  5420                           	line	75
  5421  0FCA  2FD6               	goto	l4905
  5422                           	
  5423  0FCB                     l3194:	
  5424                           	line	76
  5425                           	
  5426  0FCB                     l4903:	
  5427  0FCB  3001               	movlw	low(01h)
  5428  0FCC  02F7               	subwf	(___ftpack@exp),f
  5429                           	line	77
  5430  0FCD  3001               	movlw	01h
  5431  0FCE                     u2645:
  5432  0FCE  1003               	clrc
  5433  0FCF  0DF4               	rlf	(___ftpack@arg),f
  5434  0FD0  0DF5               	rlf	(___ftpack@arg+1),f
  5435  0FD1  0DF6               	rlf	(___ftpack@arg+2),f
  5436  0FD2  3EFF               	addlw	-1
  5437  0FD3  1D03               	skipz
  5438  0FD4  2FCE               	goto	u2645
  5439  0FD5  2FD6               	goto	l4905
  5440                           	line	78
  5441                           	
  5442  0FD6                     l3193:	
  5443                           	line	75
  5444                           	
  5445  0FD6                     l4905:	
  5446  0FD6  1FF5               	btfss	(___ftpack@arg+1),(15)&7
  5447  0FD7  2FD9               	goto	u2651
  5448  0FD8  2FDA               	goto	u2650
  5449  0FD9                     u2651:
  5450  0FD9  2FCB               	goto	l4903
  5451  0FDA                     u2650:
  5452                           	
  5453  0FDA                     l3195:	
  5454                           	line	79
  5455  0FDA  1877               	btfsc	(___ftpack@exp),(0)&7
  5456  0FDB  2FDD               	goto	u2661
  5457  0FDC  2FDE               	goto	u2660
  5458  0FDD                     u2661:
  5459  0FDD  2FE4               	goto	l3196
  5460  0FDE                     u2660:
  5461                           	line	80
  5462                           	
  5463  0FDE                     l4907:	
  5464  0FDE  30FF               	movlw	0FFh
  5465  0FDF  05F4               	andwf	(___ftpack@arg),f
  5466  0FE0  307F               	movlw	07Fh
  5467  0FE1  05F5               	andwf	(___ftpack@arg+1),f
  5468  0FE2  30FF               	movlw	0FFh
  5469  0FE3  05F6               	andwf	(___ftpack@arg+2),f
  5470                           	
  5471  0FE4                     l3196:	
  5472                           	line	81
  5473  0FE4  1003               	clrc
  5474  0FE5  0CF7               	rrf	(___ftpack@exp),f
  5475                           
  5476                           	line	82
  5477                           	
  5478  0FE6                     l4909:	
  5479  0FE6  0877               	movf	(___ftpack@exp),w
  5480  0FE7  1283               	bcf	status, 5	;RP0=0, select bank0
  5481  0FE8  1303               	bcf	status, 6	;RP1=0, select bank0
  5482  0FE9  00A0               	movwf	((??___ftpack+0)+0)
  5483  0FEA  01A1               	clrf	((??___ftpack+0)+0+1)
  5484  0FEB  01A2               	clrf	((??___ftpack+0)+0+2)
  5485  0FEC  3010               	movlw	010h
  5486  0FED                     u2675:
  5487  0FED  1003               	clrc
  5488  0FEE  0DA0               	rlf	(??___ftpack+0)+0,f
  5489  0FEF  0DA1               	rlf	(??___ftpack+0)+1,f
  5490  0FF0  0DA2               	rlf	(??___ftpack+0)+2,f
  5491  0FF1                     u2670:
  5492  0FF1  3EFF               	addlw	-1
  5493  0FF2  1D03               	skipz
  5494  0FF3  2FED               	goto	u2675
  5495  0FF4  0820               	movf	0+(??___ftpack+0)+0,w
  5496  0FF5  04F4               	iorwf	(___ftpack@arg),f
  5497  0FF6  0821               	movf	1+(??___ftpack+0)+0,w
  5498  0FF7  04F5               	iorwf	(___ftpack@arg+1),f
  5499  0FF8  0822               	movf	2+(??___ftpack+0)+0,w
  5500  0FF9  04F6               	iorwf	(___ftpack@arg+2),f
  5501                           	line	83
  5502                           	
  5503  0FFA                     l4911:	
  5504  0FFA  0878               	movf	(___ftpack@sign),w
  5505  0FFB  1D03               	skipz
  5506  0FFC  2FFE               	goto	u2680
  5507  0FFD  2FFF               	goto	l3197
  5508  0FFE                     u2680:
  5509                           	line	84
  5510                           	
  5511  0FFE                     l4913:	
  5512  0FFE  17F6               	bsf	(___ftpack@arg)+(23/8),(23)&7
  5513                           	
  5514  0FFF                     l3197:	
  5515                           	line	85
  5516                           	line	86
  5517                           	
  5518  0FFF                     l3186:	
  5519  0FFF  0008               	return
  5520                           	opt stack 0
  5521                           GLOBAL	__end_of___ftpack
  5522  1000                     	__end_of___ftpack:
  5523 ;; =============== function ___ftpack ends ============
  5524                           
  5525                           	signat	___ftpack,12411
  5526                           	global	___bmul
  5527                           psect	text485,local,class=CODE,delta=2
  5528                           global __ptext485
  5529  0DF4                     __ptext485:
  5530                           
  5531 ;; *************** function ___bmul *****************
  5532 ;; Defined at:
  5533 ;;		line 3 in file "C:\Program Files (x86)\HI-TECH Software\PICC\9.82\sources\bmul.c"
  5534 ;; Parameters:    Size  Location     Type
  5535 ;;  multiplier      1    wreg     unsigned char 
  5536 ;;  multiplicand    1    9[COMMON] unsigned char 
  5537 ;; Auto vars:     Size  Location     Type
  5538 ;;  multiplier      1   24[BANK0 ] unsigned char 
  5539 ;;  product         1   23[BANK0 ] unsigned char 
  5540 ;; Return value:  Size  Location     Type
  5541 ;;                  1    wreg      unsigned char 
  5542 ;; Registers used:
  5543 ;;		wreg, status,2, status,0
  5544 ;; Tracked objects:
  5545 ;;		On entry : 0/0
  5546 ;;		On exit  : 0/0
  5547 ;;		Unchanged: 0/0
  5548 ;; Data sizes:     COMMON   BANK0   BANK1   BANK3   BANK2
  5549 ;;      Params:         1       0       0       0       0
  5550 ;;      Locals:         0       2       0       0       0
  5551 ;;      Temps:          0       1       0       0       0
  5552 ;;      Totals:         1       3       0       0       0
  5553 ;;Total ram usage:        4 bytes
  5554 ;; Hardware stack levels used:    1
  5555 ;; Hardware stack levels required when called:    1
  5556 ;; This function calls:
  5557 ;;		Nothing
  5558 ;; This function is called by:
  5559 ;;		_main
  5560 ;; This function uses a non-reentrant model
  5561 ;;
  5562                           psect	text485
  5563                           	file	"C:\Program Files (x86)\HI-TECH Software\PICC\9.82\sources\bmul.c"
  5564                           	line	3
  5565                           	global	__size_of___bmul
  5566  001A                     	__size_of___bmul	equ	__end_of___bmul-___bmul
  5567                           	
  5568  0DF4                     ___bmul:	
  5569                           	opt	stack 6
  5570                           ; Regs used in ___bmul: [wreg+status,2+status,0]
  5571                           ;___bmul@multiplier stored from wreg
  5572  0DF4  1283               	bcf	status, 5	;RP0=0, select bank0
  5573  0DF5  1303               	bcf	status, 6	;RP1=0, select bank0
  5574  0DF6  00B8               	movwf	(___bmul@multiplier)
  5575                           	line	4
  5576                           	
  5577  0DF7                     l4871:	
  5578  0DF7  01B7               	clrf	(___bmul@product)
  5579                           	line	6
  5580                           	
  5581  0DF8                     l2845:	
  5582                           	line	7
  5583  0DF8  1C38               	btfss	(___bmul@multiplier),(0)&7
  5584  0DF9  2DFB               	goto	u2561
  5585  0DFA  2DFC               	goto	u2560
  5586  0DFB                     u2561:
  5587  0DFB  2E01               	goto	l4875
  5588  0DFC                     u2560:
  5589                           	line	8
  5590                           	
  5591  0DFC                     l4873:	
  5592  0DFC  0879               	movf	(___bmul@multiplicand),w
  5593  0DFD  00B6               	movwf	(??___bmul+0)+0
  5594  0DFE  0836               	movf	(??___bmul+0)+0,w
  5595  0DFF  07B7               	addwf	(___bmul@product),f
  5596  0E00  2E01               	goto	l4875
  5597                           	
  5598  0E01                     l2846:	
  5599                           	line	9
  5600                           	
  5601  0E01                     l4875:	
  5602  0E01  1003               	clrc
  5603  0E02  0DF9               	rlf	(___bmul@multiplicand),f
  5604                           
  5605                           	line	10
  5606                           	
  5607  0E03                     l4877:	
  5608  0E03  1003               	clrc
  5609  0E04  0CB8               	rrf	(___bmul@multiplier),f
  5610                           
  5611                           	line	11
  5612                           	
  5613  0E05                     l4879:	
  5614  0E05  08B8               	movf	(___bmul@multiplier),f
  5615  0E06  1D03               	skipz
  5616  0E07  2E09               	goto	u2571
  5617  0E08  2E0A               	goto	u2570
  5618  0E09                     u2571:
  5619  0E09  2DF8               	goto	l2845
  5620  0E0A                     u2570:
  5621  0E0A  2E0B               	goto	l4881
  5622                           	
  5623  0E0B                     l2847:	
  5624                           	line	12
  5625                           	
  5626  0E0B                     l4881:	
  5627  0E0B  0837               	movf	(___bmul@product),w
  5628  0E0C  2E0D               	goto	l2848
  5629                           	
  5630  0E0D                     l4883:	
  5631                           	line	13
  5632                           	
  5633  0E0D                     l2848:	
  5634  0E0D  0008               	return
  5635                           	opt stack 0
  5636                           GLOBAL	__end_of___bmul
  5637  0E0E                     	__end_of___bmul:
  5638 ;; =============== function ___bmul ends ============
  5639                           
  5640                           	signat	___bmul,8313
  5641                           	global	_RS232Tx
  5642                           psect	text486,local,class=CODE,delta=2
  5643                           global __ptext486
  5644  07C5                     __ptext486:
  5645                           
  5646 ;; *************** function _RS232Tx *****************
  5647 ;; Defined at:
  5648 ;;		line 28 in file "C:\Users\Ricardo\Mestrado\TAC\trab10\Rs232.c"
  5649 ;; Parameters:    Size  Location     Type
  5650 ;;  s               1    wreg     PTR unsigned char 
  5651 ;;		 -> main@env(7), 
  5652 ;;  tam             1    4[COMMON] unsigned char 
  5653 ;; Auto vars:     Size  Location     Type
  5654 ;;  s               1    6[COMMON] PTR unsigned char 
  5655 ;;		 -> main@env(7), 
  5656 ;;  m               2    7[COMMON] unsigned short 
  5657 ;;  k               1    9[COMMON] unsigned char 
  5658 ;; Return value:  Size  Location     Type
  5659 ;;		None               void
  5660 ;; Registers used:
  5661 ;;		wreg, fsr0l, fsr0h, status,2, status,0
  5662 ;; Tracked objects:
  5663 ;;		On entry : 0/0
  5664 ;;		On exit  : 0/0
  5665 ;;		Unchanged: 0/0
  5666 ;; Data sizes:     COMMON   BANK0   BANK1   BANK3   BANK2
  5667 ;;      Params:         1       0       0       0       0
  5668 ;;      Locals:         4       0       0       0       0
  5669 ;;      Temps:          1       0       0       0       0
  5670 ;;      Totals:         6       0       0       0       0
  5671 ;;Total ram usage:        6 bytes
  5672 ;; Hardware stack levels used:    1
  5673 ;; Hardware stack levels required when called:    1
  5674 ;; This function calls:
  5675 ;;		Nothing
  5676 ;; This function is called by:
  5677 ;;		_main
  5678 ;; This function uses a non-reentrant model
  5679 ;;
  5680                           psect	text486
  5681                           	file	"C:\Users\Ricardo\Mestrado\TAC\trab10\Rs232.c"
  5682                           	line	28
  5683                           	global	__size_of_RS232Tx
  5684  0037                     	__size_of_RS232Tx	equ	__end_of_RS232Tx-_RS232Tx
  5685                           	
  5686  07C5                     _RS232Tx:	
  5687                           	opt	stack 6
  5688                           ; Regs used in _RS232Tx: [wreg-fsr0h+status,2+status,0]
  5689                           ;RS232Tx@s stored from wreg
  5690                           	line	30
  5691  07C5  00F6               	movwf	(RS232Tx@s)
  5692                           	
  5693  07C6                     l4855:	
  5694                           ;Rs232.c: 30: for(unsigned char k=0; k<tam;k++){
  5695  07C6  01F9               	clrf	(RS232Tx@k)
  5696  07C7  2FF4               	goto	l4869
  5697                           	
  5698  07C8                     l2161:	
  5699                           	line	31
  5700                           	
  5701  07C8                     l4857:	
  5702                           ;Rs232.c: 31: TXREG=*(s+k);
  5703  07C8  0879               	movf	(RS232Tx@k),w
  5704  07C9  0776               	addwf	(RS232Tx@s),w
  5705  07CA  00F5               	movwf	(??_RS232Tx+0)+0
  5706  07CB  0875               	movf	0+(??_RS232Tx+0)+0,w
  5707  07CC  0084               	movwf	fsr0
  5708  07CD  1383               	bcf	status, 7	;select IRP bank0
  5709  07CE  0800               	movf	indf,w
  5710  07CF  1283               	bcf	status, 5	;RP0=0, select bank0
  5711  07D0  1303               	bcf	status, 6	;RP1=0, select bank0
  5712  07D1  0099               	movwf	(25)	;volatile
  5713                           	line	32
  5714                           	
  5715  07D2                     l4859:	
  5716                           ;Rs232.c: 32: for(unsigned short int m=0;m<500;m++){}
  5717  07D2  01F7               	clrf	(RS232Tx@m)
  5718  07D3  01F8               	clrf	(RS232Tx@m+1)
  5719                           	
  5720  07D4                     l4861:	
  5721  07D4  3001               	movlw	high(01F4h)
  5722  07D5  0278               	subwf	(RS232Tx@m+1),w
  5723  07D6  30F4               	movlw	low(01F4h)
  5724  07D7  1903               	skipnz
  5725  07D8  0277               	subwf	(RS232Tx@m),w
  5726  07D9  1C03               	skipc
  5727  07DA  2FDC               	goto	u2531
  5728  07DB  2FDD               	goto	u2530
  5729  07DC                     u2531:
  5730  07DC  2FDF               	goto	l4865
  5731  07DD                     u2530:
  5732  07DD  2FEF               	goto	l4867
  5733                           	
  5734  07DE                     l4863:	
  5735  07DE  2FEF               	goto	l4867
  5736                           	
  5737  07DF                     l2162:	
  5738                           	
  5739  07DF                     l4865:	
  5740  07DF  3001               	movlw	low(01h)
  5741  07E0  07F7               	addwf	(RS232Tx@m),f
  5742  07E1  1803               	skipnc
  5743  07E2  0AF8               	incf	(RS232Tx@m+1),f
  5744  07E3  3000               	movlw	high(01h)
  5745  07E4  07F8               	addwf	(RS232Tx@m+1),f
  5746  07E5  3001               	movlw	high(01F4h)
  5747  07E6  0278               	subwf	(RS232Tx@m+1),w
  5748  07E7  30F4               	movlw	low(01F4h)
  5749  07E8  1903               	skipnz
  5750  07E9  0277               	subwf	(RS232Tx@m),w
  5751  07EA  1C03               	skipc
  5752  07EB  2FED               	goto	u2541
  5753  07EC  2FEE               	goto	u2540
  5754  07ED                     u2541:
  5755  07ED  2FDF               	goto	l4865
  5756  07EE                     u2540:
  5757  07EE  2FEF               	goto	l4867
  5758                           	
  5759  07EF                     l2163:	
  5760                           	line	30
  5761                           	
  5762  07EF                     l4867:	
  5763  07EF  3001               	movlw	(01h)
  5764  07F0  00F5               	movwf	(??_RS232Tx+0)+0
  5765  07F1  0875               	movf	(??_RS232Tx+0)+0,w
  5766  07F2  07F9               	addwf	(RS232Tx@k),f
  5767  07F3  2FF4               	goto	l4869
  5768                           	
  5769  07F4                     l2160:	
  5770                           	
  5771  07F4                     l4869:	
  5772  07F4  0874               	movf	(RS232Tx@tam),w
  5773  07F5  0279               	subwf	(RS232Tx@k),w
  5774  07F6  1C03               	skipc
  5775  07F7  2FF9               	goto	u2551
  5776  07F8  2FFA               	goto	u2550
  5777  07F9                     u2551:
  5778  07F9  2FC8               	goto	l4857
  5779  07FA                     u2550:
  5780  07FA  2FFB               	goto	l2165
  5781                           	
  5782  07FB                     l2164:	
  5783                           	line	34
  5784                           	
  5785  07FB                     l2165:	
  5786  07FB  0008               	return
  5787                           	opt stack 0
  5788                           GLOBAL	__end_of_RS232Tx
  5789  07FC                     	__end_of_RS232Tx:
  5790 ;; =============== function _RS232Tx ends ============
  5791                           
  5792                           	signat	_RS232Tx,8312
  5793                           	global	_SPI_Config
  5794                           psect	text487,local,class=CODE,delta=2
  5795                           global __ptext487
  5796  0DDD                     __ptext487:
  5797                           
  5798 ;; *************** function _SPI_Config *****************
  5799 ;; Defined at:
  5800 ;;		line 16 in file "C:\Users\Ricardo\Mestrado\TAC\trab10\SPI.c"
  5801 ;; Parameters:    Size  Location     Type
  5802 ;;		None
  5803 ;; Auto vars:     Size  Location     Type
  5804 ;;		None
  5805 ;; Return value:  Size  Location     Type
  5806 ;;		None               void
  5807 ;; Registers used:
  5808 ;;		None
  5809 ;; Tracked objects:
  5810 ;;		On entry : 0/0
  5811 ;;		On exit  : 0/0
  5812 ;;		Unchanged: 0/0
  5813 ;; Data sizes:     COMMON   BANK0   BANK1   BANK3   BANK2
  5814 ;;      Params:         0       0       0       0       0
  5815 ;;      Locals:         0       0       0       0       0
  5816 ;;      Temps:          0       0       0       0       0
  5817 ;;      Totals:         0       0       0       0       0
  5818 ;;Total ram usage:        0 bytes
  5819 ;; Hardware stack levels used:    1
  5820 ;; Hardware stack levels required when called:    1
  5821 ;; This function calls:
  5822 ;;		Nothing
  5823 ;; This function is called by:
  5824 ;;		_main
  5825 ;; This function uses a non-reentrant model
  5826 ;;
  5827                           psect	text487
  5828                           	file	"C:\Users\Ricardo\Mestrado\TAC\trab10\SPI.c"
  5829                           	line	16
  5830                           	global	__size_of_SPI_Config
  5831  0017                     	__size_of_SPI_Config	equ	__end_of_SPI_Config-_SPI_Config
  5832                           	
  5833  0DDD                     _SPI_Config:	
  5834                           	opt	stack 6
  5835                           ; Regs used in _SPI_Config: []
  5836                           	line	18
  5837                           	
  5838  0DDD                     l4853:	
  5839                           ;SPI.c: 18: TRISC3=0;
  5840  0DDD  1683               	bsf	status, 5	;RP0=1, select bank1
  5841  0DDE  1303               	bcf	status, 6	;RP1=0, select bank1
  5842  0DDF  1187               	bcf	(1083/8)^080h,(1083)&7
  5843                           	line	19
  5844                           ;SPI.c: 19: TRISC4=1;
  5845  0DE0  1607               	bsf	(1084/8)^080h,(1084)&7
  5846                           	line	20
  5847                           ;SPI.c: 20: TRISC5=0;
  5848  0DE1  1287               	bcf	(1085/8)^080h,(1085)&7
  5849                           	line	21
  5850                           ;SPI.c: 21: TRISB4=0;
  5851  0DE2  1206               	bcf	(1076/8)^080h,(1076)&7
  5852                           	line	22
  5853                           ;SPI.c: 22: SSPEN=0;
  5854  0DE3  1283               	bcf	status, 5	;RP0=0, select bank0
  5855  0DE4  1303               	bcf	status, 6	;RP1=0, select bank0
  5856  0DE5  1294               	bcf	(165/8),(165)&7
  5857                           	line	23
  5858                           ;SPI.c: 23: SSPM0=0;
  5859  0DE6  1014               	bcf	(160/8),(160)&7
  5860                           	line	24
  5861                           ;SPI.c: 24: SSPM1=0;
  5862  0DE7  1094               	bcf	(161/8),(161)&7
  5863                           	line	25
  5864                           ;SPI.c: 25: SSPM2=0;
  5865  0DE8  1114               	bcf	(162/8),(162)&7
  5866                           	line	26
  5867                           ;SPI.c: 26: SSPM3=0;
  5868  0DE9  1194               	bcf	(163/8),(163)&7
  5869                           	line	27
  5870                           ;SPI.c: 27: CKP=0;
  5871  0DEA  1214               	bcf	(164/8),(164)&7
  5872                           	line	28
  5873                           ;SPI.c: 28: CKE=1;
  5874  0DEB  1683               	bsf	status, 5	;RP0=1, select bank1
  5875  0DEC  1303               	bcf	status, 6	;RP1=0, select bank1
  5876  0DED  1714               	bsf	(1190/8)^080h,(1190)&7
  5877                           	line	29
  5878                           ;SPI.c: 29: SMP=0;
  5879  0DEE  1394               	bcf	(1191/8)^080h,(1191)&7
  5880                           	line	30
  5881                           ;SPI.c: 30: SSPEN=1;
  5882  0DEF  1283               	bcf	status, 5	;RP0=0, select bank0
  5883  0DF0  1303               	bcf	status, 6	;RP1=0, select bank0
  5884  0DF1  1694               	bsf	(165/8),(165)&7
  5885                           	line	31
  5886                           ;SPI.c: 31: RB4=1;
  5887  0DF2  1606               	bsf	(52/8),(52)&7
  5888                           	line	32
  5889                           	
  5890  0DF3                     l1403:	
  5891  0DF3  0008               	return
  5892                           	opt stack 0
  5893                           GLOBAL	__end_of_SPI_Config
  5894  0DF4                     	__end_of_SPI_Config:
  5895 ;; =============== function _SPI_Config ends ============
  5896                           
  5897                           	signat	_SPI_Config,88
  5898                           	global	_RSI
  5899                           psect	text488,local,class=CODE,delta=2
  5900                           global __ptext488
  5901  0DA3                     __ptext488:
  5902                           
  5903 ;; *************** function _RSI *****************
  5904 ;; Defined at:
  5905 ;;		line 6 in file "C:\Users\Ricardo\Mestrado\TAC\trab10\p10.c"
  5906 ;; Parameters:    Size  Location     Type
  5907 ;;		None
  5908 ;; Auto vars:     Size  Location     Type
  5909 ;;		None
  5910 ;; Return value:  Size  Location     Type
  5911 ;;		None               void
  5912 ;; Registers used:
  5913 ;;		None
  5914 ;; Tracked objects:
  5915 ;;		On entry : 0/0
  5916 ;;		On exit  : 0/0
  5917 ;;		Unchanged: 0/0
  5918 ;; Data sizes:     COMMON   BANK0   BANK1   BANK3   BANK2
  5919 ;;      Params:         0       0       0       0       0
  5920 ;;      Locals:         0       0       0       0       0
  5921 ;;      Temps:          4       0       0       0       0
  5922 ;;      Totals:         4       0       0       0       0
  5923 ;;Total ram usage:        4 bytes
  5924 ;; Hardware stack levels used:    1
  5925 ;; This function calls:
  5926 ;;		Nothing
  5927 ;; This function is called by:
  5928 ;;		Interrupt level 1
  5929 ;; This function uses a non-reentrant model
  5930 ;;
  5931                           psect	text488
  5932                           	file	"C:\Users\Ricardo\Mestrado\TAC\trab10\p10.c"
  5933                           	line	6
  5934                           	global	__size_of_RSI
  5935  0011                     	__size_of_RSI	equ	__end_of_RSI-_RSI
  5936                           	
  5937  0DA3                     _RSI:	
  5938                           	opt	stack 4
  5939                           ; Regs used in _RSI: []
  5940                           psect	intentry,class=CODE,delta=2
  5941                           global __pintentry
  5942  0004                     __pintentry:
  5943                           global interrupt_function
  5944  0004                     interrupt_function:
  5945                           	global saved_w
  5946  007E                     	saved_w	set	btemp+0
  5947  0004  00FE               	movwf	saved_w
  5948  0005  0E03               	swapf	status,w
  5949  0006  00F0               	movwf	(??_RSI+0)
  5950  0007  0804               	movf	fsr0,w
  5951  0008  00F1               	movwf	(??_RSI+1)
  5952  0009  080A               	movf	pclath,w
  5953  000A  00F2               	movwf	(??_RSI+2)
  5954  000B  1283               	bcf	status, 5	;RP0=0, select bank0
  5955  000C  1303               	bcf	status, 6	;RP1=0, select bank0
  5956  000D  087F               	movf	btemp+1,w
  5957  000E  00F3               	movwf	(??_RSI+3)
  5958  000F  120A  158A  2DA3   	ljmp	_RSI
  5959                           psect	text488
  5960                           	line	8
  5961                           	
  5962  0DA3                     i1l3689:	
  5963                           ;p10.c: 8: if(RCIF==1){
  5964  0DA3  1E8C               	btfss	(101/8),(101)&7
  5965  0DA4  2DA6               	goto	u1_21
  5966  0DA5  2DA7               	goto	u1_20
  5967  0DA6                     u1_21:
  5968  0DA6  2DA9               	goto	i1l694
  5969  0DA7                     u1_20:
  5970                           	line	9
  5971                           	
  5972  0DA7                     i1l3691:	
  5973                           ;p10.c: 9: RCIF=0;
  5974  0DA7  128C               	bcf	(101/8),(101)&7
  5975  0DA8  2DA9               	goto	i1l694
  5976                           	line	10
  5977                           	
  5978  0DA9                     i1l693:	
  5979                           	line	11
  5980                           	
  5981  0DA9                     i1l694:	
  5982  0DA9  0873               	movf	(??_RSI+3),w
  5983  0DAA  00FF               	movwf	btemp+1
  5984  0DAB  0872               	movf	(??_RSI+2),w
  5985  0DAC  008A               	movwf	pclath
  5986  0DAD  0871               	movf	(??_RSI+1),w
  5987  0DAE  0084               	movwf	fsr0
  5988  0DAF  0E70               	swapf	(??_RSI+0)^0FFFFFF80h,w
  5989  0DB0  0083               	movwf	status
  5990  0DB1  0EFE               	swapf	saved_w,f
  5991  0DB2  0E7E               	swapf	saved_w,w
  5992  0DB3  0009               	retfie
  5993                           	opt stack 0
  5994                           GLOBAL	__end_of_RSI
  5995  0DB4                     	__end_of_RSI:
  5996 ;; =============== function _RSI ends ============
  5997                           
  5998                           	signat	_RSI,88
  5999                           psect	text489,local,class=CODE,delta=2
  6000                           global __ptext489
  6001  0000                     __ptext489:
  6002                           	global	btemp
  6003  007E                     	btemp set 07Eh
  6004                           
  6005                           	DABS	1,126,2	;btemp
  6006                           	global	wtemp0
  6007  007E                     	wtemp0 set btemp


HI-TECH Software PICC Macro Assembler V9.82 build 9453 
Symbol Table                                                                                   Sat Nov 22 18:59:47 2014

         ___altoft@exp 003C                      _f 00BD                      pc 0002         ___bmul@product 0037  
        ___altoft@sign 003D                     _BF 04A0                     _RD 0C60                     _WR 0C61  
                   fsr 0004           ___ftadd@exp1 004C           ___ftadd@exp2 004B           ___ftadd@sign 004A  
                  l701 0055                    l710 0118                    l702 0067                    l711 011F  
                  l703 0076                    l712 01CF                    l704 007B                    l713 0202  
                  l705 007B                    l714 02DB                    l706 0082                    l715 02DC  
                  l707 008E                    l716 02DC                    l708 008E                    l709 0095  
                  _CKE 04A6                    _CKP 00A4                    _GIE 005F                    _RB0 0030  
                  _RB4 0034                    _SMP 04A7                    _RSI 0DA3                    fsr0 0004  
                  indf 0000                   ?_RSI 0070           ___ftdiv@cntr 0067        __end_of_RS232Tx 07FC  
         ___ftdiv@sign 006C                   l1403 0DF3                   l3020 0F7E                   l3014 0DA1  
                 l3015 0DA2                   l2160 07F4                   l2161 07C8                   l2162 07DF  
                 l3018 0F3B                   l2163 07EF                   l3019 0F67                   l2164 07FB  
                 l2165 07FB                   l2157 0724                   l1470 07C4                   l3080 0EEB  
                 l5001 0F3F                   l3081 0EDD                   l3074 0E28                   l3082 0EF2  
                 l5011 0F7B                   l5003 0F67                   l3083 0F0E                   l1468 0777  
                 l5013 0F7E                   l5005 0F69                   l5101 03F4                   l1469 07BD  
                 l3190 0FC3                   l3191 0FAB                   l3183 0F93                   l5007 0F6B  
                 l5103 0404                   l5111 0526                   l3079 0EDC                   l3192 0FCA  
                 l3193 0FD6                   l3185 0F8B                   l5009 0F79                   l5105 0408  
                 l5041 02F9                   l5121 0547                   l5113 052D                   l5201 0E2A  
                 l3194 0FCB                   l3186 0FFF                   l3195 0FDA                   l3187 0FA3  
                 l5107 0424                   l5051 0316                   l5043 02FD                   l5131 057A  
                 l5123 054D                   l5115 052E                   l5203 0E49                   l5211 0E75  
                 l3196 0FE4                   l3188 0F94                   l3197 0FFF                   l3189 0FAA  
                 l5061 0333                   l5053 031A                   l2901 032A                   l5045 0303  
                 l5141 05AD                   l5133 0581                   l5125 0552                   l5117 053F  
                 l5109 0513                   l5205 0E4A                   l5213 0E0E                   l5221 0EC9  
                 l5301 0079                   l2910 0369                   l2902 0334                   l2911 037D  
                 l5071 0358                   l5063 0338                   l2903 0339                   l5055 0320  
                 l5047 030E                   l5039 02DF                   l5143 05AF                   l5135 058D  
                 l5127 0564                   l5119 0546                   l5151 0425                   l5207 0E51  
                 l5215 0E28                   l5231 0EF2                   l5223 0ECD                   l5311 00D5  
                 l5303 0082                   l2920 03B4                   l2904 037E                   l2912 03B5  
                 l2921 03CA                   l2913 03B5                   l5081 0385                   l5073 035E  
                 l2905 034E                   l5065 033A                   l5057 032B                   l5049 0315  
                 l5145 05B7                   l5137 0595                   l5129 0576                   l5161 0458  
                 l5153 0438                   l5209 0E5A                   l5233 0F0E                   l5225 0ED8  
                 l5217 0EC2                   l5241 068B                   l5321 0134                   l5313 00EA  
                 l5305 008A                   l2922 03DF                   l2914 0385                   l2923 0408  
                 l5091 03B9                   l5083 038F                   l5075 0369                   l2907 0367  
                 l5067 0340                   l5059 032F                   l5147 05BE                   l5139 05A3  
                 l5171 048E                   l5163 0459                   l5155 043F                   l5227 0EDD  
                 l5219 0EC5                   l5251 0720                   l5243 0718                   l5235 0681  
                 l5323 01CF                   l5315 00F0                   l5307 0095                   l2916 039E  
                 l2908 0368                   l2940 05DA                   l2845 0DF8                   l5093 03CA  
                 l2917 039F                   l5085 0395                   l2909 0376                   l5077 0376  
                 l5069 034E                   l5149 05DA                   l2941 0547                   l5181 04B6  
                 l5173 0494                   l5165 0486                   l5157 0440                   l5229 0EEB  
                 l5253 0721                   l5245 0719                   l5237 0689                   l5261 073B  
                 l5325 025A                   l5317 0118                   l5309 00B2                   l2846 0E01  
                 l2926 0E7F                   l2918 03AD                   l2942 058D                   l2950 0512  
                 l2847 0E0B                   l2927 0E9D                   l5095 03CE                   l5087 03A0  
                 l2919 03A0                   l5079 037E                   l2943 05AF                   l5191 04DF  
                 l5183 04BE                   l5175 0499                   l5167 0487                   l2951 0459  
                 l5159 0451                   l5255 0722                   l5247 071C                   l5239 068A  
                 l5271 0796                   l5263 0741                   l5327 025E                   l5319 011F  
                 l2848 0E0D                   l2928 0EB8                   l2960 05F8                   l2944 05BE  
                 l2952 0499                   l2929 0EC1                   l2961 0680                   l5097 03DF  
                 l5089 03AD                   l5193 04E7                   l5185 04C5                   l2953 04AE  
                 l5177 049D                   l5169 0488                   l5257 0723                   l5249 071D  
                 l5273 07BD                   l5265 0750                   l5329 02D0                   l5281 002A  
                 l2970 0666                   l2962 0643                   l2954 04C5                   l2971 0677  
                 l2963 062F                   l5099 03F0                   l2939 052E                   l5195 04EF  
                 l2955 04CA                   l5187 04CA                   l5179 04AE                   l5275 07C4  
                 l5267 0777                   l5259 0725                   l5291 0055                   l5283 002F  
                 l2964 0630                   l2956 04DF                   l4901 0FBB                   l2965 0642  
                 l2957 04F6                   l5197 04F6                   l5189 04CE                   l2949 0440  
                 l5269 077D                   l5293 0058                   l5285 0037                   l5277 0015  
                 l2966 0667                   l4911 0FFA                   l4903 0FCB                   l2967 0653  
                 l2895 0316                   l5199 0512                   l5295 005C                   l5287 003D  
                 l5279 001B                   l2968 0660                   l2976 0E49                   l4913 0FFE  
                 l4905 0FD6                   l4921 0E9D                   l2969 0654                   l2897 030E  
                 l5297 0066                   l5289 003F                   l2898 0424                   l4907 0FDE  
                 l4923 0EA6                   l4915 0E76                   l4851 0F7D                   l2899 032B  
                 l2987 0E5A                   l5299 0067                   l2988 0E75                   l4853 0DDD  
                 l4861 07D4                   l4909 0FE6                   l4925 0EB8                   l4917 0E7F  
                 l4941 05F8                   l4863 07DE                   l4855 07C6                   l4871 0DF7  
                 l4927 0EC1                   l4919 0E85                   l4951 061A                   l4943 060A  
                 l4935 05DB                   l4865 07DF                   l4857 07C8                   l4881 0E0B  
                 l4873 0DFC                   l4953 061E                   l4961 0643                   l4945 060B  
                 l4937 05EE                   l4849 0F7B                   l4867 07EF                   l4859 07D2  
                 l4883 0E0D                   l4875 0E01                   l4891 0F92                   l4963 0649  
                 l4971 0667                   l4955 0625                   l4947 0611                   l4939 05F7  
                 l4869 07F4                   l4877 0E03                   l4893 0F94                   l4885 0F7F  
                 l4973 066B                   l4965 0652                   l4957 062E                   l4949 0618  
                 l4879 0E05                   l4895 0FA3                   l4887 0F83                   l4975 0677  
                 l4967 0654                   l4959 0630                   l4991 0DA1                   l4897 0FAB  
                 l4889 0F8B                   l4977 0680                   l4969 0660                   l4993 0DA2  
                 l4899 0FB1                   l4987 0D95                   l4995 0F0F                   l4989 0D9E  
                 l4997 0F13                   l4999 0F3B                   _BRGH 04C2                   _CREN 00C4  
                 u3000 0333                   u3001 0332                   u3010 0338                   u3011 0337  
                 u3100 0395                   u3020 034D                   u3101 0394                   u3021 034C  
                 u3110 039D                   u3111 039C                   u3040 035E                   u3200 055D  
                 u3041 035D                   u3130 03B3                   u3050 0366                   u3210 056F  
                 u3131 03B2                   u3051 0365                   u3035 034F                   u3140 03B9  
                 u3300 049D                   u3141 03B8                   u3125 03A1                   u3205 0559  
                 u3301 049C                   u3150 03CE                   u3070 037C                   u3230 05A3  
                 u3151 03CD                   u3071 037B                   u3231 05A2                   u3215 056B  
                 u3311 04A6                   u3080 0384                   u3312 04AD                   u3400 0E51  
                 u3161 03E9                   u3081 0383                   u3065 036A                   u3225 058E  
                 u3401 0E50                   u2530 07DD                   u2610 0FA9                   u3170 03F4  
                 u3162 03F0                   u3250 05BD                   u3410 0ECD                   u2531 07DC  
                 u2611 0FA8                   u3171 03F3                   u3251 05BC                   u3235 059F  
                 u3411 0ECC                   u2540 07EE                   u3180 0526                   u3340 04C4  
                 u3260 0438                   u3500 0081                   u2541 07ED                   u2605 0F9B  
                 u2701 0E8E                   u3245 05B0                   u3181 0525                   u3341 04C3  
                 u3325 04AF                   u3261 0437                   u3501 0080                   u2550 07FA  
                 u2630 0FC9                   u2702 0E95                   u3190 053F                   u3350 04CE  
                 u3270 0451                   u3430 0EF1                   u3510 0094                   u2551 07F9  
                 u2631 0FC8                   u2703 0E9C                   u3095 0386                   u3191 053E  
                 u3351 04CD                   u3335 04B7                   u3271 0450                   u3431 0EF0  
                 u3511 0093                   u2560 0DFC                   u2800 0649                   u3280 0469  
                 u3440 0741                   u3520 00EA                   u2561 0DFB                   u2625 0FBC  
                 u2801 0648                   u3361 04D7                   u3425 0EDE                   u3441 0740  
                 u3521 00E9                   u2570 0E0A                   u2650 0FDA                   u2730 0EB7  
                 u3362 04DE                   u3290 047B                   u3530 0134                   u2571 0E09  
                 u2651 0FD9                   u2731 0EB6                   u2715 0E9F                   u3531 0133  
                 u2660 0FDE                   u2580 0F83                   u2820 0665                   u2740 05EE  
                 u2900 0F79                   u2661 0FDD                   u2645 0FCE                   u2725 0EA7  
                 u2821 0664                   u2741 05ED                   u2901 0F78                   u3285 0465  
                 u2670 0FF1                   u2590 0F8A                   u2830 066B                   u2750 0603  
                 u3390 04F5                   u3470 0047                   u2591 0F89                   u2815 0656  
                 u3391 04F4                   u3375 04E0                   u3295 0477                   u3455 0746  
                 u2680 0FFE                   u2760 061E                   u3480 0065                   u2761 061D  
                 u2905 0F75                   u3385 04E8                   u3465 0784                   u3481 0064  
                 u2690 0E85                   u2770 0625                   u2850 0D9E                   u3490 0076  
                 u2675 0FED                   u2691 0E84                   u2771 0624                   u2755 05FF  
                 u2851 0D9D                   u3491 0075                   _PEIE 005E                   u2860 0F13  
                 u2940 02FD                   u2861 0F12                   u2790 0641                   u2950 0303  
                 u2791 0640                   u2871 0F2D                   u2951 0302                   u2880 0F3F  
                 u2872 0F2E                   u2960 030D                   u2785 0631                   u2881 0F3E  
                 u2873 0F33                   u2961 030C                   u2874 0F34                   u2970 031A  
                 u2891 0F59                   _RCIE 0465                   u2892 0F5A                   u2980 0320  
                 _RCIF 0065                   u2893 0F5F                   u2981 031F                   u2894 0F60  
                 u2990 032A                   u2991 0329                   _SPEN 00C7                   _WREN 0C62  
                 _TXEN 04C5                   _SYNC 04C4                   u1_20 0DA7                   u1_21 0DA6  
                 _main 0015           ___ftpack@arg 0074           ___ftpack@exp 0077                   btemp 007E  
                 start 0012      ___bmul@multiplier 0038           ___ftmul@cntr 005B           ___ftmul@sign 005C  
                ??_RSI 0070          ?_convert_temp 005D           ___fttol@exp1 0035           ___fttol@lval 0031  
                ?_main 0070      convert_temp@tmp_2 0064      convert_temp@tmp_3 0066      convert_temp@value 006B  
                _EEADR 010D        __end_of___ftadd 0425                  _CARRY 0018        __end_of___ftdiv 05DB  
      __end_of___ftneg 0DA3        __end_of___ftmul 0513        __end_of___fttol 0681                  i1l693 0DA9  
                i1l694 0DA9                  _RCREG 001A                  _SPBRG 0099                  _SSPM0 00A0  
                _SSPM1 00A1                  _SSPM2 00A2                  _SSPM3 00A3                  _SSPEN 00A5  
                _TXREG 0019    ___lmul@multiplicand 0024          ___awtoft@sign 0079          ___ftpack@sign 0078  
                main@a 00AF                  main@i 00B1                  pclath 000A                  status 0003  
                wtemp0 007E     __size_of_Rs232Conf 00A4            ?_SPI_Config 0070           __end_of_main 02DF  
       ??_convert_temp 0060                 ??_main 00A4          ___fttol@sign1 0030              ??_RS232Tx 0075  
     __end_of___altoft 0F0F                 _EEDATA 010C                 _EECON1 018C                 _EECON2 018D  
     __end_of___awtoft 0E76       __end_of___ftpack 1000       __end_of___lbtoft 0E4A                 i1l3691 0DA7  
               i1l3689 0DA3       __end_of___lwtoft 0E29                 _TRISB0 0430                 _TRISB4 0434  
               _TRISC3 043B                 _TRISC4 043C                 _TRISC5 043D                 _TRISC6 043E  
               _TRISC7 043F                 _SSPBUF 0013                 ___bmul 0DF4                 ___ftge 0F0F  
               ___lmul 0E76              ??___ftadd 0046              ??___ftdiv 0063              ??___ftneg 0079  
            ??___ftmul 0053              ??___fttol 002C  ___ftmul@f3_as_product 0058                 saved_w 007E  
    __end_of_Rs232Conf 0725    __size_of_SPI_Config 0017             ___altoft@c 0036             ___ftadd@f1 0040  
           ___ftadd@f2 0043             ___ftge@ff1 0074             ___ftge@ff2 0077             ___ftdiv@f1 0060  
           ___ftdiv@f2 005D             ___ftdiv@f3 0068             ___ftneg@f1 0036             ___awtoft@c 0036  
           ___lbtoft@c 0079    ___bmul@multiplicand 0079             ___ftmul@f1 004D             ___ftmul@f2 0050  
           ___fttol@f1 0028         __pcstackCOMMON 0070           __pidataBANK1 0D8E             ___lwtoft@c 0036  
 __end_of_convert_temp 07C5             __pbssBANK1 00BF             __pmaintext 0015                ?___bmul 0079  
              ?___ftge 0074                ?___lmul 0020             __pintentry 0004              ?___altoft 0036  
       ___lmul@product 0075              ?___awtoft 0036              ?___ftpack 0074              ?___lbtoft 0039  
            ?___lwtoft 0036                _RS232Tx 07C5           ??_SPI_Config 0074        __size_of___bmul 001A  
      __size_of___ftge 0070        __size_of___lmul 004C                ___ftadd 02DF                ___ftdiv 0513  
              ___ftneg 0D95                ___ftmul 0425                ___fttol 05DB             ??___altoft 003A  
           ??___awtoft 0039             ??___ftpack 0020             ??___lbtoft 003C             ??___lwtoft 0079  
         __size_of_RSI 0011     __end_of_SPI_Config 0DF4                main@env 00A8   end_of_initialization 0DD9  
              init_ram 0DB8  __size_of_convert_temp 00A0              _Rs232Conf 0681            ___ftdiv@exp 006B  
          ___ftmul@exp 0057       convert_temp@temp 0068           _convert_temp 0725         __end_of___bmul 0E0E  
       __end_of___ftge 0F7F         __end_of___lmul 0EC2             RS232Tx@tam 0074    start_initialization 0DC7  
          __end_of_RSI 0DB4             ?_Rs232Conf 00A0               ??___bmul 0036               ??___ftge 0020  
        Rs232Conf@fosc 00A2               ??___lmul 0074            __pdataBANK1 00B6      __size_of___altoft 004D  
    __size_of___awtoft 002C      __size_of___ftpack 0081      __size_of___lbtoft 0021               ?_RS232Tx 0074  
    __size_of___lwtoft 001B          __pcstackBANK0 0020          __pcstackBANK1 00A0               RS232Tx@k 0079  
             RS232Tx@m 0077               RS232Tx@s 0076              __pnvBANK1 00BD               ?___ftadd 0040  
            __ptext471 0725              __ptext480 0F0F              __ptext472 0681              __ptext481 0D95  
            __ptext473 0EC2              __ptext482 05DB              __ptext474 0E0E              __ptext483 0E76  
            __ptext475 0E4A              __ptext484 0F7F              __ptext476 0E29              __ptext485 0DF4  
            __ptext477 0425              __ptext486 07C5              __ptext478 0513              __ptext487 0DDD  
            __ptext479 02DF              __ptext488 0DA3              __ptext489 0000               ?___ftdiv 005D  
             ?___ftneg 0036               ?___ftmul 004D               ?___fttol 0028            ??_Rs232Conf 007A  
    interrupt_function 0004              main@F1124 00BF              main@F1128 00B6       __size_of_RS232Tx 0037  
      convert_temp@num 005D        convert_temp@tmp 0062      ___lmul@multiplier 0020              init_fetch 0DB4  
     __size_of___ftadd 0146       __size_of___ftdiv 00C8       __size_of___ftneg 000E               ___altoft 0EC2  
     __size_of___ftmul 00EE       __size_of___fttol 00A6               ___awtoft 0E4A               ___ftpack 0F7F  
             ___lbtoft 0E29               ___lwtoft 0E0E             Rs232Conf@m 00A0          __size_of_main 02CA  
      main@temperatura 00B3               intlevel1 0000             _SPI_Config 0DDD  
